libcaf_core.so.0.14.6:_ZN3caf10actor_addr4swapERS0_
libcaf_core.so.0.14.6:_ZN3caf10actor_addrC1EPNS_14abstract_actorE
libcaf_core.so.0.14.6:_ZN3caf10actor_addrC1ERKNS_20invalid_actor_addr_tE
libcaf_core.so.0.14.6:_ZN3caf10actor_addrC2EPNS_14abstract_actorE
libcaf_core.so.0.14.6:_ZN3caf10actor_addrC2ERKNS_20invalid_actor_addr_tE
libcaf_core.so.0.14.6:_ZN3caf10actor_addraSERKNS_20invalid_actor_addr_tE
libcaf_core.so.0.14.6:_ZN3caf10actor_pool11round_robinEv
libcaf_core.so.0.14.6:_ZN3caf10actor_pool4makeESt8functionIFvRNS_11shared_lockINS_6detail15shared_spinlockEEERKSt6vectorINS_5actorESaIS8_EERSt10unique_ptrINS_15mailbox_elementENS3_8disposerEEPNS_14execution_unitEEE
libcaf_core.so.0.14.6:_ZN3caf10actor_pool4makeEmSt8functionIFNS_5actorEvEES1_IFvRNS_11shared_lockINS_6detail15shared_spinlockEEERKSt6vectorIS2_SaIS2_EERSt10unique_ptrINS_15mailbox_elementENS6_8disposerEEPNS_14execution_unitEEE
libcaf_core.so.0.14.6:_ZN3caf10actor_pool4quitEv
libcaf_core.so.0.14.6:_ZN3caf10actor_pool6filterERNS_11shared_lockINS_6detail15shared_spinlockEEERKNS_10actor_addrENS_10message_idERKNS_7messageEPNS_14execution_unitE
libcaf_core.so.0.14.6:_ZN3caf10actor_pool6randomEv
libcaf_core.so.0.14.6:_ZN3caf10actor_pool7enqueueERKNS_10actor_addrENS_10message_idENS_7messageEPNS_14execution_unitE
libcaf_core.so.0.14.6:_ZN3caf10actor_pool7enqueueESt10unique_ptrINS_15mailbox_elementENS_6detail8disposerEEPNS_14execution_unitE
libcaf_core.so.0.14.6:_ZN3caf10actor_pool9broadcastEv
libcaf_core.so.0.14.6:_ZN3caf10actor_poolC1Ev
libcaf_core.so.0.14.6:_ZN3caf10actor_poolC2Ev
libcaf_core.so.0.14.6:_ZN3caf10actor_poolD0Ev
libcaf_core.so.0.14.6:_ZN3caf10actor_poolD1Ev
libcaf_core.so.0.14.6:_ZN3caf10actor_poolD2Ev
libcaf_core.so.0.14.6:_ZN3caf10attachable12actor_exitedEPNS_14abstract_actorEj
libcaf_core.so.0.14.6:_ZN3caf10attachable16handle_exceptionERKNSt15__exception_ptr13exception_ptrE
libcaf_core.so.0.14.6:_ZN3caf10attachable5tokenC1EmPKv
libcaf_core.so.0.14.6:_ZN3caf10attachable5tokenC2EmPKv
libcaf_core.so.0.14.6:_ZN3caf10attachable7matchesERKNS0_5tokenE
libcaf_core.so.0.14.6:_ZN3caf10attachableD0Ev
libcaf_core.so.0.14.6:_ZN3caf10attachableD1Ev
libcaf_core.so.0.14.6:_ZN3caf10attachableD2Ev
libcaf_core.so.0.14.6:_ZN3caf10filter_msgEPNS_11local_actorERNS_15mailbox_elementE
libcaf_core.so.0.14.6:_ZN3caf10match_caseC1Ebj
libcaf_core.so.0.14.6:_ZN3caf10match_caseC2Ebj
libcaf_core.so.0.14.6:_ZN3caf10match_caseD0Ev
libcaf_core.so.0.14.6:_ZN3caf10match_caseD1Ev
libcaf_core.so.0.14.6:_ZN3caf10match_caseD2Ev
libcaf_core.so.0.14.6:_ZN3caf10serializerC1EPNS_15actor_namespaceE
libcaf_core.so.0.14.6:_ZN3caf10serializerC2EPNS_15actor_namespaceE
libcaf_core.so.0.14.6:_ZN3caf10serializerD0Ev
libcaf_core.so.0.14.6:_ZN3caf10serializerD1Ev
libcaf_core.so.0.14.6:_ZN3caf10serializerD2Ev
libcaf_core.so.0.14.6:_ZN3caf11actor_proxy16request_deletionEb
libcaf_core.so.0.14.6:_ZN3caf11actor_proxy6anchor10try_expireEv
libcaf_core.so.0.14.6:_ZN3caf11actor_proxy6anchor3getEv
libcaf_core.so.0.14.6:_ZN3caf11actor_proxy6anchorC1EPS0_
libcaf_core.so.0.14.6:_ZN3caf11actor_proxy6anchorC2EPS0_
libcaf_core.so.0.14.6:_ZN3caf11actor_proxy6anchorD0Ev
libcaf_core.so.0.14.6:_ZN3caf11actor_proxy6anchorD1Ev
libcaf_core.so.0.14.6:_ZN3caf11actor_proxy6anchorD2Ev
libcaf_core.so.0.14.6:_ZN3caf11actor_proxyC1EjNS_7node_idE
libcaf_core.so.0.14.6:_ZN3caf11actor_proxyC2EjNS_7node_idE
libcaf_core.so.0.14.6:_ZN3caf11actor_proxyD0Ev
libcaf_core.so.0.14.6:_ZN3caf11actor_proxyD1Ev
libcaf_core.so.0.14.6:_ZN3caf11actor_proxyD2Ev
libcaf_core.so.0.14.6:_ZN3caf11exit_reason9as_stringEj
libcaf_core.so.0.14.6:_ZN3caf11local_actor10await_dataEv
libcaf_core.so.0.14.6:_ZN3caf11local_actor10exec_eventERSt10unique_ptrINS_15mailbox_elementENS_6detail8disposerEE
libcaf_core.so.0.14.6:_ZN3caf11local_actor10load_stateERNS_12deserializerEj
libcaf_core.so.0.14.6:_ZN3caf11local_actor10save_stateERNS_10serializerEj
libcaf_core.so.0.14.6:_ZN3caf11local_actor11last_senderEv
libcaf_core.so.0.14.6:_ZN3caf11local_actor12get_behaviorEv
libcaf_core.so.0.14.6:_ZN3caf11local_actor12mark_arrivedENS_10message_idE
libcaf_core.so.0.14.6:_ZN3caf11local_actor12next_messageEv
libcaf_core.so.0.14.6:_ZN3caf11local_actor13last_dequeuedEv
libcaf_core.so.0.14.6:_ZN3caf11local_actor13push_to_cacheESt10unique_ptrINS_15mailbox_elementENS_6detail8disposerEE
libcaf_core.so.0.14.6:_ZN3caf11local_actor13reset_timeoutEj
libcaf_core.so.0.14.6:_ZN3caf11local_actor14handle_timeoutERNS_8behaviorEj
libcaf_core.so.0.14.6:_ZN3caf11local_actor14invoke_messageERSt10unique_ptrINS_15mailbox_elementENS_6detail8disposerEERNS_8behaviorENS_10message_idE
libcaf_core.so.0.14.6:_ZN3caf11local_actor14new_request_idENS_16message_priorityE
libcaf_core.so.0.14.6:_ZN3caf11local_actor15request_timeoutERKNS_8durationE
libcaf_core.so.0.14.6:_ZN3caf11local_actor16has_next_messageEv
libcaf_core.so.0.14.6:_ZN3caf11local_actor17delayed_send_implENS_10message_idERKNS_7channelERKNS_8durationENS_7messageE
libcaf_core.so.0.14.6:_ZN3caf11local_actor17exec_single_eventERSt10unique_ptrINS_15mailbox_elementENS_6detail8disposerEE
libcaf_core.so.0.14.6:_ZN3caf11local_actor17invoke_from_cacheERNS_8behaviorENS_10message_idE
libcaf_core.so.0.14.6:_ZN3caf11local_actor17invoke_from_cacheEv
libcaf_core.so.0.14.6:_ZN3caf11local_actor19attach_to_schedulerEv
libcaf_core.so.0.14.6:_ZN3caf11local_actor19awaited_response_idEv
libcaf_core.so.0.14.6:_ZN3caf11local_actor20set_response_handlerENS_10message_idENS_8behaviorE
libcaf_core.so.0.14.6:_ZN3caf11local_actor21detach_from_schedulerEv
libcaf_core.so.0.14.6:_ZN3caf11local_actor21find_pending_responseENS_10message_idE
libcaf_core.so.0.14.6:_ZN3caf11local_actor21make_response_promiseEv
libcaf_core.so.0.14.6:_ZN3caf11local_actor23forward_current_messageERKNS_5actorE
libcaf_core.so.0.14.6:_ZN3caf11local_actor23forward_current_messageERKNS_5actorENS_16message_priorityE
libcaf_core.so.0.14.6:_ZN3caf11local_actor24awaited_response_handlerEv
libcaf_core.so.0.14.6:_ZN3caf11local_actor24request_sync_timeout_msgERKNS_8durationENS_10message_idE
libcaf_core.so.0.14.6:_ZN3caf11local_actor4joinERKNS_5groupE
libcaf_core.so.0.14.6:_ZN3caf11local_actor4quitEj
libcaf_core.so.0.14.6:_ZN3caf11local_actor5leaveERKNS_5groupE
libcaf_core.so.0.14.6:_ZN3caf11local_actor6launchEPNS_14execution_unitEbb
libcaf_core.so.0.14.6:_ZN3caf11local_actor6resumeEPNS_14execution_unitEm
libcaf_core.so.0.14.6:_ZN3caf11local_actor7cleanupEj
libcaf_core.so.0.14.6:_ZN3caf11local_actor7enqueueERKNS_10actor_addrENS_10message_idENS_7messageEPNS_14execution_unitE
libcaf_core.so.0.14.6:_ZN3caf11local_actor7enqueueESt10unique_ptrINS_15mailbox_elementENS_6detail8disposerEEPNS_14execution_unitE
libcaf_core.so.0.14.6:_ZN3caf11local_actor7monitorERKNS_10actor_addrE
libcaf_core.so.0.14.6:_ZN3caf11local_actor7on_exitEv
libcaf_core.so.0.14.6:_ZN3caf11local_actor8finalizeEv
libcaf_core.so.0.14.6:_ZN3caf11local_actor9demonitorERKNS_10actor_addrE
libcaf_core.so.0.14.6:_ZN3caf11local_actor9do_becomeENS_8behaviorEb
libcaf_core.so.0.14.6:_ZN3caf11local_actor9send_exitERKNS_10actor_addrEj
libcaf_core.so.0.14.6:_ZN3caf11local_actorC1Ev
libcaf_core.so.0.14.6:_ZN3caf11local_actorC2Ev
libcaf_core.so.0.14.6:_ZN3caf11local_actorD0Ev
libcaf_core.so.0.14.6:_ZN3caf11local_actorD1Ev
libcaf_core.so.0.14.6:_ZN3caf11local_actorD2Ev
libcaf_core.so.0.14.6:_ZN3caf11ref_counted5derefEv
libcaf_core.so.0.14.6:_ZN3caf11ref_countedC1ERKS0_
libcaf_core.so.0.14.6:_ZN3caf11ref_countedC1Ev
libcaf_core.so.0.14.6:_ZN3caf11ref_countedC2ERKS0_
libcaf_core.so.0.14.6:_ZN3caf11ref_countedC2Ev
libcaf_core.so.0.14.6:_ZN3caf11ref_countedD0Ev
libcaf_core.so.0.14.6:_ZN3caf11ref_countedD1Ev
libcaf_core.so.0.14.6:_ZN3caf11ref_countedD2Ev
libcaf_core.so.0.14.6:_ZN3caf11ref_countedaSERKS0_
libcaf_core.so.0.14.6:_ZN3caf12actor_exitedC1Ej
libcaf_core.so.0.14.6:_ZN3caf12actor_exitedC2Ej
libcaf_core.so.0.14.6:_ZN3caf12actor_exitedD0Ev
libcaf_core.so.0.14.6:_ZN3caf12actor_exitedD1Ev
libcaf_core.so.0.14.6:_ZN3caf12actor_exitedD2Ev
libcaf_core.so.0.14.6:_ZN3caf12bind_failureC1EONSt7__cxx1112basic_stringIcSt11char_traitsIcESaIcEEE
libcaf_core.so.0.14.6:_ZN3caf12bind_failureC1ERKNSt7__cxx1112basic_stringIcSt11char_traitsIcESaIcEEE
libcaf_core.so.0.14.6:_ZN3caf12bind_failureC2EONSt7__cxx1112basic_stringIcSt11char_traitsIcESaIcEEE
libcaf_core.so.0.14.6:_ZN3caf12bind_failureC2ERKNSt7__cxx1112basic_stringIcSt11char_traitsIcESaIcEEE
libcaf_core.so.0.14.6:_ZN3caf12bind_failureD0Ev
libcaf_core.so.0.14.6:_ZN3caf12bind_failureD1Ev
libcaf_core.so.0.14.6:_ZN3caf12bind_failureD2Ev
libcaf_core.so.0.14.6:_ZN3caf12deserializerC1EPNS_15actor_namespaceE
libcaf_core.so.0.14.6:_ZN3caf12deserializerC2EPNS_15actor_namespaceE
libcaf_core.so.0.14.6:_ZN3caf12deserializerD0Ev
libcaf_core.so.0.14.6:_ZN3caf12deserializerD1Ev
libcaf_core.so.0.14.6:_ZN3caf12deserializerD2Ev
libcaf_core.so.0.14.6:_ZN3caf12experimental22announce_actor_factoryENSt7__cxx1112basic_stringIcSt11char_traitsIcESaIcEEESt8functionIFSt4pairINS_10actor_addrESt3setIS6_St4lessIS6_ESaIS6_EEENS_7messageEEE
libcaf_core.so.0.14.6:_ZN3caf12experimental32spawn_announce_actor_type_serverEv
libcaf_core.so.0.14.6:_ZN3caf12experimental7whereisENS_10atom_valueE
libcaf_core.so.0.14.6:_ZN3caf12experimental7whereisENS_10atom_valueENS_7node_idE
libcaf_core.so.0.14.6:_ZN3caf12parse_configERKNSt7__cxx1112basic_stringIcSt11char_traitsIcESaIcEEENS_8optionalINS_13config_formatEEENS8_IRSoEE
libcaf_core.so.0.14.6:_ZN3caf12parse_configERSiNS_13config_formatENS_8optionalIRSoEE
libcaf_core.so.0.14.6:_ZN3caf12scoped_actor4initEb
libcaf_core.so.0.14.6:_ZN3caf12scoped_actorC1Eb
libcaf_core.so.0.14.6:_ZN3caf12scoped_actorC1Ev
libcaf_core.so.0.14.6:_ZN3caf12scoped_actorC2Eb
libcaf_core.so.0.14.6:_ZN3caf12scoped_actorC2Ev
libcaf_core.so.0.14.6:_ZN3caf12scoped_actorD1Ev
libcaf_core.so.0.14.6:_ZN3caf12scoped_actorD2Ev
libcaf_core.so.0.14.6:_ZN3caf13actor_ostream12redirect_allENSt7__cxx1112basic_stringIcSt11char_traitsIcESaIcEEEi
libcaf_core.so.0.14.6:_ZN3caf13actor_ostream5flushEv
libcaf_core.so.0.14.6:_ZN3caf13actor_ostream5writeENSt7__cxx1112basic_stringIcSt11char_traitsIcESaIcEEE
libcaf_core.so.0.14.6:_ZN3caf13actor_ostream8redirectERKNS_5actorENSt7__cxx1112basic_stringIcSt11char_traitsIcESaIcEEEi
libcaf_core.so.0.14.6:_ZN3caf13actor_ostreamC1ENS_5actorE
libcaf_core.so.0.14.6:_ZN3caf13actor_ostreamC2ENS_5actorE
libcaf_core.so.0.14.6:_ZN3caf13caf_exceptionC1ENSt7__cxx1112basic_stringIcSt11char_traitsIcESaIcEEE
libcaf_core.so.0.14.6:_ZN3caf13caf_exceptionC2ENSt7__cxx1112basic_stringIcSt11char_traitsIcESaIcEEE
libcaf_core.so.0.14.6:_ZN3caf13caf_exceptionD0Ev
libcaf_core.so.0.14.6:_ZN3caf13caf_exceptionD1Ev
libcaf_core.so.0.14.6:_ZN3caf13caf_exceptionD2Ev
libcaf_core.so.0.14.6:_ZN3caf13network_errorC1EONSt7__cxx1112basic_stringIcSt11char_traitsIcESaIcEEE
libcaf_core.so.0.14.6:_ZN3caf13network_errorC1ERKNSt7__cxx1112basic_stringIcSt11char_traitsIcESaIcEEE
libcaf_core.so.0.14.6:_ZN3caf13network_errorC2EONSt7__cxx1112basic_stringIcSt11char_traitsIcESaIcEEE
libcaf_core.so.0.14.6:_ZN3caf13network_errorC2ERKNSt7__cxx1112basic_stringIcSt11char_traitsIcESaIcEEE
libcaf_core.so.0.14.6:_ZN3caf13network_errorD0Ev
libcaf_core.so.0.14.6:_ZN3caf13network_errorD1Ev
libcaf_core.so.0.14.6:_ZN3caf13network_errorD2Ev
libcaf_core.so.0.14.6:_ZN3caf13set_schedulerEPNS_9scheduler20abstract_coordinatorE
libcaf_core.so.0.14.6:_ZN3caf14abstract_actor11detach_implERKNS_10attachable5tokenERSt10unique_ptrIS1_St14default_deleteIS1_EEbb
libcaf_core.so.0.14.6:_ZN3caf14abstract_actor13is_registeredEb
libcaf_core.so.0.14.6:_ZN3caf14abstract_actor15latest_actor_idEv
libcaf_core.so.0.14.6:_ZN3caf14abstract_actor16remove_link_implERKNS_10actor_addrE
libcaf_core.so.0.14.6:_ZN3caf14abstract_actor19establish_link_implERKNS_10actor_addrE
libcaf_core.so.0.14.6:_ZN3caf14abstract_actor20remove_backlink_implERKNS_10actor_addrE
libcaf_core.so.0.14.6:_ZN3caf14abstract_actor23establish_backlink_implERKNS_10actor_addrE
libcaf_core.so.0.14.6:_ZN3caf14abstract_actor6attachESt10unique_ptrINS_10attachableESt14default_deleteIS2_EE
libcaf_core.so.0.14.6:_ZN3caf14abstract_actor6detachERKNS_10attachable5tokenE
libcaf_core.so.0.14.6:_ZN3caf14abstract_actor6handleERKNSt15__exception_ptr13exception_ptrE
libcaf_core.so.0.14.6:_ZN3caf14abstract_actor7cleanupEj
libcaf_core.so.0.14.6:_ZN3caf14abstract_actor9link_implENS0_17linking_operationERKNS_10actor_addrE
libcaf_core.so.0.14.6:_ZN3caf14abstract_actorC1EjNS_7node_idE
libcaf_core.so.0.14.6:_ZN3caf14abstract_actorC1Ev
libcaf_core.so.0.14.6:_ZN3caf14abstract_actorC2EjNS_7node_idE
libcaf_core.so.0.14.6:_ZN3caf14abstract_actorC2Ev
libcaf_core.so.0.14.6:_ZN3caf14abstract_group6module4stopEv
libcaf_core.so.0.14.6:_ZN3caf14abstract_group6moduleC1ENSt7__cxx1112basic_stringIcSt11char_traitsIcESaIcEEE
libcaf_core.so.0.14.6:_ZN3caf14abstract_group6moduleC2ENSt7__cxx1112basic_stringIcSt11char_traitsIcESaIcEEE
libcaf_core.so.0.14.6:_ZN3caf14abstract_group6moduleD0Ev
libcaf_core.so.0.14.6:_ZN3caf14abstract_group6moduleD1Ev
libcaf_core.so.0.14.6:_ZN3caf14abstract_group6moduleD2Ev
libcaf_core.so.0.14.6:_ZN3caf14abstract_groupC1EPNS0_6moduleENSt7__cxx1112basic_stringIcSt11char_traitsIcESaIcEEERKNS_7node_idE
libcaf_core.so.0.14.6:_ZN3caf14abstract_groupC2EPNS0_6moduleENSt7__cxx1112basic_stringIcSt11char_traitsIcESaIcEEERKNS_7node_idE
libcaf_core.so.0.14.6:_ZN3caf14abstract_groupD0Ev
libcaf_core.so.0.14.6:_ZN3caf14abstract_groupD1Ev
libcaf_core.so.0.14.6:_ZN3caf14abstract_groupD2Ev
libcaf_core.so.0.14.6:_ZN3caf14blocking_actor10initializeEv
libcaf_core.so.0.14.6:_ZN3caf14blocking_actor27await_all_other_actors_doneEv
libcaf_core.so.0.14.6:_ZN3caf14blocking_actor3actEv
libcaf_core.so.0.14.6:_ZN3caf14blocking_actor7dequeueERNS_8behaviorENS_10message_idE
libcaf_core.so.0.14.6:_ZN3caf14blocking_actorC1Ev
libcaf_core.so.0.14.6:_ZN3caf14blocking_actorC2Ev
libcaf_core.so.0.14.6:_ZN3caf14blocking_actorD0Ev
libcaf_core.so.0.14.6:_ZN3caf14blocking_actorD1Ev
libcaf_core.so.0.14.6:_ZN3caf14blocking_actorD2Ev
libcaf_core.so.0.14.6:_ZN3caf14execution_unitD0Ev
libcaf_core.so.0.14.6:_ZN3caf14execution_unitD1Ev
libcaf_core.so.0.14.6:_ZN3caf14execution_unitD2Ev
libcaf_core.so.0.14.6:_ZN3caf14memory_managed16request_deletionEb
libcaf_core.so.0.14.6:_ZN3caf14memory_managedD0Ev
libcaf_core.so.0.14.6:_ZN3caf14memory_managedD1Ev
libcaf_core.so.0.14.6:_ZN3caf14memory_managedD2Ev
libcaf_core.so.0.14.6:_ZN3caf14uniform_typeidERKSt9type_infob
libcaf_core.so.0.14.6:_ZN3caf15actor_companion10disconnectEj
libcaf_core.so.0.14.6:_ZN3caf15actor_companion10initializeEv
libcaf_core.so.0.14.6:_ZN3caf15actor_companion10on_enqueueESt8functionIFvSt10unique_ptrINS_15mailbox_elementENS_6detail8disposerEEEE
libcaf_core.so.0.14.6:_ZN3caf15actor_companion7enqueueERKNS_10actor_addrENS_10message_idENS_7messageEPNS_14execution_unitE
libcaf_core.so.0.14.6:_ZN3caf15actor_companion7enqueueESt10unique_ptrINS_15mailbox_elementENS_6detail8disposerEEPNS_14execution_unitE
libcaf_core.so.0.14.6:_ZN3caf15actor_namespace10get_or_putERKNS_7node_idEj
libcaf_core.so.0.14.6:_ZN3caf15actor_namespace11proxy_entry5resetEj
libcaf_core.so.0.14.6:_ZN3caf15actor_namespace11proxy_entryC1ENS_13intrusive_ptrINS_11actor_proxy6anchorEEE
libcaf_core.so.0.14.6:_ZN3caf15actor_namespace11proxy_entryC1Ev
libcaf_core.so.0.14.6:_ZN3caf15actor_namespace11proxy_entryC2ENS_13intrusive_ptrINS_11actor_proxy6anchorEEE
libcaf_core.so.0.14.6:_ZN3caf15actor_namespace11proxy_entryC2Ev
libcaf_core.so.0.14.6:_ZN3caf15actor_namespace11proxy_entryD1Ev
libcaf_core.so.0.14.6:_ZN3caf15actor_namespace11proxy_entryD2Ev
libcaf_core.so.0.14.6:_ZN3caf15actor_namespace13count_proxiesERKNS_7node_idE
libcaf_core.so.0.14.6:_ZN3caf15actor_namespace3getERKNS_7node_idEj
libcaf_core.so.0.14.6:_ZN3caf15actor_namespace4readEPNS_12deserializerE
libcaf_core.so.0.14.6:_ZN3caf15actor_namespace5clearEv
libcaf_core.so.0.14.6:_ZN3caf15actor_namespace5eraseERKNS_7node_idE
libcaf_core.so.0.14.6:_ZN3caf15actor_namespace5eraseERKNS_7node_idEjj
libcaf_core.so.0.14.6:_ZN3caf15actor_namespace7backendD0Ev
libcaf_core.so.0.14.6:_ZN3caf15actor_namespace7backendD1Ev
libcaf_core.so.0.14.6:_ZN3caf15actor_namespace7backendD2Ev
libcaf_core.so.0.14.6:_ZN3caf15actor_namespaceC1ERNS0_7backendE
libcaf_core.so.0.14.6:_ZN3caf15actor_namespaceC2ERNS0_7backendE
libcaf_core.so.0.14.6:_ZN3caf15continue_helperC1ENS_10message_idE
libcaf_core.so.0.14.6:_ZN3caf15continue_helperC2ENS_10message_idE
libcaf_core.so.0.14.6:_ZN3caf15mailbox_element4makeENS_10actor_addrENS_10message_idENS_7messageE
libcaf_core.so.0.14.6:_ZN3caf15mailbox_elementC1ENS_10actor_addrENS_10message_idE
libcaf_core.so.0.14.6:_ZN3caf15mailbox_elementC1ENS_10actor_addrENS_10message_idENS_7messageE
libcaf_core.so.0.14.6:_ZN3caf15mailbox_elementC1Ev
libcaf_core.so.0.14.6:_ZN3caf15mailbox_elementC2ENS_10actor_addrENS_10message_idE
libcaf_core.so.0.14.6:_ZN3caf15mailbox_elementC2ENS_10actor_addrENS_10message_idENS_7messageE
libcaf_core.so.0.14.6:_ZN3caf15mailbox_elementC2Ev
libcaf_core.so.0.14.6:_ZN3caf15mailbox_elementD0Ev
libcaf_core.so.0.14.6:_ZN3caf15mailbox_elementD1Ev
libcaf_core.so.0.14.6:_ZN3caf15mailbox_elementD2Ev
libcaf_core.so.0.14.6:_ZN3caf15message_builder15move_to_messageEv
libcaf_core.so.0.14.6:_ZN3caf15message_builder16dynamic_msg_dataD0Ev
libcaf_core.so.0.14.6:_ZN3caf15message_builder16dynamic_msg_dataD1Ev
libcaf_core.so.0.14.6:_ZN3caf15message_builder16dynamic_msg_dataD2Ev
libcaf_core.so.0.14.6:_ZN3caf15message_builder4dataEv
libcaf_core.so.0.14.6:_ZN3caf15message_builder4initEv
libcaf_core.so.0.14.6:_ZN3caf15message_builder5applyENS_15message_handlerE
libcaf_core.so.0.14.6:_ZN3caf15message_builder5clearEv
libcaf_core.so.0.14.6:_ZN3caf15message_builder6appendESt10unique_ptrINS_15uniform_value_tESt14default_deleteIS2_EE
libcaf_core.so.0.14.6:_ZN3caf15message_builderC1Ev
libcaf_core.so.0.14.6:_ZN3caf15message_builderC2Ev
libcaf_core.so.0.14.6:_ZN3caf15message_builderD1Ev
libcaf_core.so.0.14.6:_ZN3caf15message_builderD2Ev
libcaf_core.so.0.14.6:_ZN3caf15message_handler6assignES0_
libcaf_core.so.0.14.6:_ZN3caf15message_handlerC1ENS_13intrusive_ptrINS_6detail13behavior_implEEE
libcaf_core.so.0.14.6:_ZN3caf15message_handlerC2ENS_13intrusive_ptrINS_6detail13behavior_implEEE
libcaf_core.so.0.14.6:_ZN3caf15uniform_value_tC1EPKNS_17uniform_type_infoEPv
libcaf_core.so.0.14.6:_ZN3caf15uniform_value_tC2EPKNS_17uniform_type_infoEPv
libcaf_core.so.0.14.6:_ZN3caf15uniform_value_tD0Ev
libcaf_core.so.0.14.6:_ZN3caf15uniform_value_tD1Ev
libcaf_core.so.0.14.6:_ZN3caf15uniform_value_tD2Ev
libcaf_core.so.0.14.6:_ZN3caf16abstract_channel7enqueueESt10unique_ptrINS_15mailbox_elementENS_6detail8disposerEEPNS_14execution_unitE
libcaf_core.so.0.14.6:_ZN3caf16abstract_channelC1Ei
libcaf_core.so.0.14.6:_ZN3caf16abstract_channelC1EiNS_7node_idE
libcaf_core.so.0.14.6:_ZN3caf16abstract_channelC2Ei
libcaf_core.so.0.14.6:_ZN3caf16abstract_channelC2EiNS_7node_idE
libcaf_core.so.0.14.6:_ZN3caf16abstract_channelD0Ev
libcaf_core.so.0.14.6:_ZN3caf16abstract_channelD1Ev
libcaf_core.so.0.14.6:_ZN3caf16abstract_channelD2Ev
libcaf_core.so.0.14.6:_ZN3caf16from_string_implERKNSt7__cxx1112basic_stringIcSt11char_traitsIcESaIcEEE
libcaf_core.so.0.14.6:_ZN3caf16response_promiseC1ERKNS_10actor_addrES3_RKNS_10message_idE
libcaf_core.so.0.14.6:_ZN3caf16response_promiseC2ERKNS_10actor_addrES3_RKNS_10message_idE
libcaf_core.so.0.14.6:_ZN3caf17binary_serializer10end_objectEv
libcaf_core.so.0.14.6:_ZN3caf17binary_serializer11write_valueERKNS_7variantIJasilhtjmfdeNSt7__cxx1112basic_stringIcSt11char_traitsIcESaIcEEENS3_IDsS4_IDsESaIDsEEENS3_IDiS4_IDiESaIDiEEENS_10atom_valueEbEEE
libcaf_core.so.0.14.6:_ZN3caf17binary_serializer12begin_objectEPKNS_17uniform_type_infoE
libcaf_core.so.0.14.6:_ZN3caf17binary_serializer12end_sequenceEv
libcaf_core.so.0.14.6:_ZN3caf17binary_serializer14begin_sequenceEm
libcaf_core.so.0.14.6:_ZN3caf17binary_serializer9write_rawEmPKv
libcaf_core.so.0.14.6:_ZN3caf17event_based_actor10forward_toERKNS_5actorENS_16message_priorityE
libcaf_core.so.0.14.6:_ZN3caf17event_based_actor10initializeEv
libcaf_core.so.0.14.6:_ZN3caf17event_based_actor13make_behaviorEv
libcaf_core.so.0.14.6:_ZN3caf17event_based_actorD0Ev
libcaf_core.so.0.14.6:_ZN3caf17event_based_actorD1Ev
libcaf_core.so.0.14.6:_ZN3caf17event_based_actorD2Ev
libcaf_core.so.0.14.6:_ZN3caf17to_verbose_stringB5cxx11ERKSt9exception
libcaf_core.so.0.14.6:_ZN3caf17uniform_type_info4fromERKNSt7__cxx1112basic_stringIcSt11char_traitsIcESaIcEEE
libcaf_core.so.0.14.6:_ZN3caf17uniform_type_info4fromERKSt9type_info
libcaf_core.so.0.14.6:_ZN3caf17uniform_type_info9instancesEv
libcaf_core.so.0.14.6:_ZN3caf17uniform_type_infoC1Et
libcaf_core.so.0.14.6:_ZN3caf17uniform_type_infoC2Et
libcaf_core.so.0.14.6:_ZN3caf17uniform_type_infoD0Ev
libcaf_core.so.0.14.6:_ZN3caf17uniform_type_infoD1Ev
libcaf_core.so.0.14.6:_ZN3caf17uniform_type_infoD2Ev
libcaf_core.so.0.14.6:_ZN3caf18default_attachable12actor_exitedEPNS_14abstract_actorEj
libcaf_core.so.0.14.6:_ZN3caf18default_attachable7matchesERKNS_10attachable5tokenE
libcaf_core.so.0.14.6:_ZN3caf18default_attachableC1ENS_10actor_addrENS0_12observe_typeE
libcaf_core.so.0.14.6:_ZN3caf18default_attachableC2ENS_10actor_addrENS0_12observe_typeE
libcaf_core.so.0.14.6:_ZN3caf19binary_deserializer10buf_equalsEPKvm
libcaf_core.so.0.14.6:_ZN3caf19binary_deserializer10end_objectEv
libcaf_core.so.0.14.6:_ZN3caf19binary_deserializer10read_valueERNS_7variantIJasilhtjmfdeNSt7__cxx1112basic_stringIcSt11char_traitsIcESaIcEEENS3_IDsS4_IDsESaIDsEEENS3_IDiS4_IDiESaIDiEEENS_10atom_valueEbEEE
libcaf_core.so.0.14.6:_ZN3caf19binary_deserializer12begin_objectEv
libcaf_core.so.0.14.6:_ZN3caf19binary_deserializer12end_sequenceEv
libcaf_core.so.0.14.6:_ZN3caf19binary_deserializer14begin_sequenceEv
libcaf_core.so.0.14.6:_ZN3caf19binary_deserializer7advanceEl
libcaf_core.so.0.14.6:_ZN3caf19binary_deserializer8read_rawEmPv
libcaf_core.so.0.14.6:_ZN3caf19binary_deserializerC1EPKvS2_PNS_15actor_namespaceE
libcaf_core.so.0.14.6:_ZN3caf19binary_deserializerC1EPKvmPNS_15actor_namespaceE
libcaf_core.so.0.14.6:_ZN3caf19binary_deserializerC1ERKS0_
libcaf_core.so.0.14.6:_ZN3caf19binary_deserializerC2EPKvS2_PNS_15actor_namespaceE
libcaf_core.so.0.14.6:_ZN3caf19binary_deserializerC2EPKvmPNS_15actor_namespaceE
libcaf_core.so.0.14.6:_ZN3caf19binary_deserializerC2ERKS0_
libcaf_core.so.0.14.6:_ZN3caf19binary_deserializeraSERKS0_
libcaf_core.so.0.14.6:_ZN3caf20replies_to_type_nameEmPKNSt7__cxx1112basic_stringIcSt11char_traitsIcESaIcEEEmS7_mS7_
libcaf_core.so.0.14.6:_ZN3caf20uniform_typeid_by_nrEt
libcaf_core.so.0.14.6:_ZN3caf21handle_message_id_resEPNS_11local_actorERNS_7messageENS_8optionalINS_16response_promiseEEE
libcaf_core.so.0.14.6:_ZN3caf22fetch_response_promiseEPNS_11local_actorERNS_16response_promiseE
libcaf_core.so.0.14.6:_ZN3caf22fetch_response_promiseEPNS_11local_actorEi
libcaf_core.so.0.14.6:_ZN3caf22forwarding_actor_proxy10kill_proxyEj
libcaf_core.so.0.14.6:_ZN3caf22forwarding_actor_proxy11forward_msgERKNS_10actor_addrENS_10message_idENS_7messageE
libcaf_core.so.0.14.6:_ZN3caf22forwarding_actor_proxy13local_link_toERKNS_10actor_addrE
libcaf_core.so.0.14.6:_ZN3caf22forwarding_actor_proxy17local_unlink_fromERKNS_10actor_addrE
libcaf_core.so.0.14.6:_ZN3caf22forwarding_actor_proxy7enqueueERKNS_10actor_addrENS_10message_idENS_7messageEPNS_14execution_unitE
libcaf_core.so.0.14.6:_ZN3caf22forwarding_actor_proxy7managerENS_5actorE
libcaf_core.so.0.14.6:_ZN3caf22forwarding_actor_proxy9link_implENS_14abstract_actor17linking_operationERKNS_10actor_addrE
libcaf_core.so.0.14.6:_ZN3caf22forwarding_actor_proxyC1EjNS_7node_idENS_5actorE
libcaf_core.so.0.14.6:_ZN3caf22forwarding_actor_proxyC2EjNS_7node_idENS_5actorE
libcaf_core.so.0.14.6:_ZN3caf22forwarding_actor_proxyD0Ev
libcaf_core.so.0.14.6:_ZN3caf22forwarding_actor_proxyD1Ev
libcaf_core.so.0.14.6:_ZN3caf22forwarding_actor_proxyD2Ev
libcaf_core.so.0.14.6:_ZN3caf24either_or_else_type_nameEmPKNSt7__cxx1112basic_stringIcSt11char_traitsIcESaIcEEEmS7_
libcaf_core.so.0.14.6:_ZN3caf4aoutEPNS_14abstract_actorE
libcaf_core.so.0.14.6:_ZN3caf4aoutERKNS_12scoped_actorE
libcaf_core.so.0.14.6:_ZN3caf5actor4swapERS0_
libcaf_core.so.0.14.6:_ZN3caf5actorC1EPNS_14abstract_actorE
libcaf_core.so.0.14.6:_ZN3caf5actorC1ERKNS_15invalid_actor_tE
libcaf_core.so.0.14.6:_ZN3caf5actorC2EPNS_14abstract_actorE
libcaf_core.so.0.14.6:_ZN3caf5actorC2ERKNS_15invalid_actor_tE
libcaf_core.so.0.14.6:_ZN3caf5actoraSERKNS_15invalid_actor_tE
libcaf_core.so.0.14.6:_ZN3caf5group10add_moduleESt10unique_ptrINS_14abstract_group6moduleESt14default_deleteIS3_EE
libcaf_core.so.0.14.6:_ZN3caf5group10get_moduleERKNSt7__cxx1112basic_stringIcSt11char_traitsIcESaIcEEE
libcaf_core.so.0.14.6:_ZN3caf5group3getERKNSt7__cxx1112basic_stringIcSt11char_traitsIcESaIcEEES8_
libcaf_core.so.0.14.6:_ZN3caf5group9anonymousEv
libcaf_core.so.0.14.6:_ZN3caf5groupC1ENS_13intrusive_ptrINS_14abstract_groupEEE
libcaf_core.so.0.14.6:_ZN3caf5groupC1ERKNS_15invalid_group_tE
libcaf_core.so.0.14.6:_ZN3caf5groupC2ENS_13intrusive_ptrINS_14abstract_groupEEE
libcaf_core.so.0.14.6:_ZN3caf5groupC2ERKNS_15invalid_group_tE
libcaf_core.so.0.14.6:_ZN3caf5groupaSERKNS_15invalid_group_tE
libcaf_core.so.0.14.6:_ZN3caf6detail10ripemd_160ERSt5arrayIhLm20EERKNSt7__cxx1112basic_stringIcSt11char_traitsIcESaIcEEE
libcaf_core.so.0.14.6:_ZN3caf6detail10singletons10get_loggerEv
libcaf_core.so.0.14.6:_ZN3caf6detail10singletons11get_node_idEv
libcaf_core.so.0.14.6:_ZN3caf6detail10singletons11set_node_idEPNS_7node_id4dataE
libcaf_core.so.0.14.6:_ZN3caf6detail10singletons15stop_singletonsEv
libcaf_core.so.0.14.6:_ZN3caf6detail10singletons16get_plugin_mutexEv
libcaf_core.so.0.14.6:_ZN3caf6detail10singletons17get_group_managerEv
libcaf_core.so.0.14.6:_ZN3caf6detail10singletons18get_actor_registryEv
libcaf_core.so.0.14.6:_ZN3caf6detail10singletons20get_plugin_singletonEm
libcaf_core.so.0.14.6:_ZN3caf6detail10singletons25get_uniform_type_info_mapEv
libcaf_core.so.0.14.6:_ZN3caf6detail10singletons26get_scheduling_coordinatorEv
libcaf_core.so.0.14.6:_ZN3caf6detail10singletons26set_scheduling_coordinatorEPNS_9scheduler20abstract_coordinatorE
libcaf_core.so.0.14.6:_ZN3caf6detail11is_wildcardERKNS0_12meta_elementE
libcaf_core.so.0.14.6:_ZN3caf6detail12memory_cacheD0Ev
libcaf_core.so.0.14.6:_ZN3caf6detail12memory_cacheD1Ev
libcaf_core.so.0.14.6:_ZN3caf6detail12memory_cacheD2Ev
libcaf_core.so.0.14.6:_ZN3caf6detail12message_data7cow_ptr12get_unsharedEv
libcaf_core.so.0.14.6:_ZN3caf6detail12message_dataD0Ev
libcaf_core.so.0.14.6:_ZN3caf6detail12message_dataD1Ev
libcaf_core.so.0.14.6:_ZN3caf6detail12message_dataD2Ev
libcaf_core.so.0.14.6:_ZN3caf6detail13behavior_impl14handle_timeoutEv
libcaf_core.so.0.14.6:_ZN3caf6detail13behavior_impl6invokeERNS_7messageE
libcaf_core.so.0.14.6:_ZN3caf6detail13behavior_impl7or_elseERKNS_13intrusive_ptrIS1_EE
libcaf_core.so.0.14.6:_ZN3caf6detail13behavior_implC1ENS_8durationE
libcaf_core.so.0.14.6:_ZN3caf6detail13behavior_implC2ENS_8durationE
libcaf_core.so.0.14.6:_ZN3caf6detail13behavior_implD0Ev
libcaf_core.so.0.14.6:_ZN3caf6detail13behavior_implD1Ev
libcaf_core.so.0.14.6:_ZN3caf6detail13behavior_implD2Ev
libcaf_core.so.0.14.6:_ZN3caf6detail13get_cache_mapEv
libcaf_core.so.0.14.6:_ZN3caf6detail13get_root_uuidB5cxx11Ev
libcaf_core.so.0.14.6:_ZN3caf6detail13group_manager10add_moduleESt10unique_ptrINS_14abstract_group6moduleESt14default_deleteIS4_EE
libcaf_core.so.0.14.6:_ZN3caf6detail13group_manager10get_moduleERKNSt7__cxx1112basic_stringIcSt11char_traitsIcESaIcEEE
libcaf_core.so.0.14.6:_ZN3caf6detail13group_manager3getERKNSt7__cxx1112basic_stringIcSt11char_traitsIcESaIcEEES9_
libcaf_core.so.0.14.6:_ZN3caf6detail13group_manager4stopEv
libcaf_core.so.0.14.6:_ZN3caf6detail13group_manager9anonymousEv
libcaf_core.so.0.14.6:_ZN3caf6detail13group_managerC1Ev
libcaf_core.so.0.14.6:_ZN3caf6detail13group_managerC2Ev
libcaf_core.so.0.14.6:_ZN3caf6detail13group_managerD1Ev
libcaf_core.so.0.14.6:_ZN3caf6detail13group_managerD2Ev
libcaf_core.so.0.14.6:_ZN3caf6detail13match_elementERKNS0_12meta_elementERKNS_7messageEmPPv
libcaf_core.so.0.14.6:_ZN3caf6detail14actor_registry10initializeEv
libcaf_core.so.0.14.6:_ZN3caf6detail14actor_registry11dec_runningEv
libcaf_core.so.0.14.6:_ZN3caf6detail14actor_registry11inc_runningEv
libcaf_core.so.0.14.6:_ZN3caf6detail14actor_registry16create_singletonEv
libcaf_core.so.0.14.6:_ZN3caf6detail14actor_registry25await_running_count_equalEm
libcaf_core.so.0.14.6:_ZN3caf6detail14actor_registry3putEjRKNS_10actor_addrE
libcaf_core.so.0.14.6:_ZN3caf6detail14actor_registry3putEjRKNS_13intrusive_ptrINS_14abstract_actorEEE
libcaf_core.so.0.14.6:_ZN3caf6detail14actor_registry4stopEv
libcaf_core.so.0.14.6:_ZN3caf6detail14actor_registry5eraseEjj
libcaf_core.so.0.14.6:_ZN3caf6detail14actor_registry7disposeEv
libcaf_core.so.0.14.6:_ZN3caf6detail14actor_registry9put_namedENS_10atom_valueENS_5actorE
libcaf_core.so.0.14.6:_ZN3caf6detail14actor_registryC1Ev
libcaf_core.so.0.14.6:_ZN3caf6detail14actor_registryC2Ev
libcaf_core.so.0.14.6:_ZN3caf6detail14actor_registryD1Ev
libcaf_core.so.0.14.6:_ZN3caf6detail14actor_registryD2Ev
libcaf_core.so.0.14.6:_ZN3caf6detail14behavior_stack5clearEv
libcaf_core.so.0.14.6:_ZN3caf6detail14behavior_stack8pop_backEv
libcaf_core.so.0.14.6:_ZN3caf6detail14get_process_idEv
libcaf_core.so.0.14.6:_ZN3caf6detail14to_string_implB5cxx11EPKvPKNS_17uniform_type_infoE
libcaf_core.so.0.14.6:_ZN3caf6detail15decorated_tuple10mutable_atEm
libcaf_core.so.0.14.6:_ZN3caf6detail15decorated_tuple4makeENS0_12message_data7cow_ptrESt6vectorImSaImEE
libcaf_core.so.0.14.6:_ZN3caf6detail15decorated_tupleC1EONS0_12message_data7cow_ptrEOSt6vectorImSaImEE
libcaf_core.so.0.14.6:_ZN3caf6detail15decorated_tupleC2EONS0_12message_data7cow_ptrEOSt6vectorImSaImEE
libcaf_core.so.0.14.6:_ZN3caf6detail15shared_spinlock11lock_sharedEv
libcaf_core.so.0.14.6:_ZN3caf6detail15shared_spinlock12lock_upgradeEv
libcaf_core.so.0.14.6:_ZN3caf6detail15shared_spinlock13unlock_sharedEv
libcaf_core.so.0.14.6:_ZN3caf6detail15shared_spinlock14unlock_upgradeEv
libcaf_core.so.0.14.6:_ZN3caf6detail15shared_spinlock15try_lock_sharedEv
libcaf_core.so.0.14.6:_ZN3caf6detail15shared_spinlock23unlock_and_lock_upgradeEv
libcaf_core.so.0.14.6:_ZN3caf6detail15shared_spinlock23unlock_upgrade_and_lockEv
libcaf_core.so.0.14.6:_ZN3caf6detail15shared_spinlock4lockEv
libcaf_core.so.0.14.6:_ZN3caf6detail15shared_spinlock6unlockEv
libcaf_core.so.0.14.6:_ZN3caf6detail15shared_spinlock8try_lockEv
libcaf_core.so.0.14.6:_ZN3caf6detail15shared_spinlockC1Ev
libcaf_core.so.0.14.6:_ZN3caf6detail15shared_spinlockC2Ev
libcaf_core.so.0.14.6:_ZN3caf6detail17get_mac_addressesB5cxx11Ev
libcaf_core.so.0.14.6:_ZN3caf6detail17run_sub_unit_testENS_5actorEPKciS3_bSt16initializer_listINSt7__cxx1112basic_stringIcSt11char_traitsIcESaIcEEEE
libcaf_core.so.0.14.6:_ZN3caf6detail18abstract_singletonD0Ev
libcaf_core.so.0.14.6:_ZN3caf6detail18abstract_singletonD1Ev
libcaf_core.so.0.14.6:_ZN3caf6detail18abstract_singletonD2Ev
libcaf_core.so.0.14.6:_ZN3caf6detail18concatenated_tuple10mutable_atEm
libcaf_core.so.0.14.6:_ZN3caf6detail18concatenated_tuple4makeESt16initializer_listINS0_12message_data7cow_ptrEE
libcaf_core.so.0.14.6:_ZN3caf6detail18concatenated_tupleC1ESt16initializer_listINS0_12message_data7cow_ptrEE
libcaf_core.so.0.14.6:_ZN3caf6detail18concatenated_tupleC2ESt16initializer_listINS0_12message_data7cow_ptrEE
libcaf_core.so.0.14.6:_ZN3caf6detail19match_atom_constantERKNS0_12meta_elementERKNS_7messageEmPPv
libcaf_core.so.0.14.6:_ZN3caf6detail20sync_request_bouncerC1Ej
libcaf_core.so.0.14.6:_ZN3caf6detail20sync_request_bouncerC2Ej
libcaf_core.so.0.14.6:_ZN3caf6detail21uniform_type_info_map16create_singletonEv
libcaf_core.so.0.14.6:_ZN3caf6detail21uniform_type_info_map4stopEv
libcaf_core.so.0.14.6:_ZN3caf6detail21uniform_type_info_map7disposeEv
libcaf_core.so.0.14.6:_ZN3caf6detail21uniform_type_info_mapD0Ev
libcaf_core.so.0.14.6:_ZN3caf6detail21uniform_type_info_mapD1Ev
libcaf_core.so.0.14.6:_ZN3caf6detail21uniform_type_info_mapD2Ev
libcaf_core.so.0.14.6:_ZN3caf6detail6memory19add_cache_map_entryEPKSt9type_infoPNS0_12memory_cacheE
libcaf_core.so.0.14.6:_ZN3caf6detail6memory19get_cache_map_entryEPKSt9type_info
libcaf_core.so.0.14.6:_ZN3caf6detail7logging12trace_helperC1ENSt7__cxx1112basic_stringIcSt11char_traitsIcESaIcEEEPKcSA_iRKS8_
libcaf_core.so.0.14.6:_ZN3caf6detail7logging12trace_helperC2ENSt7__cxx1112basic_stringIcSt11char_traitsIcESaIcEEEPKcSA_iRKS8_
libcaf_core.so.0.14.6:_ZN3caf6detail7logging12trace_helperD1Ev
libcaf_core.so.0.14.6:_ZN3caf6detail7logging12trace_helperD2Ev
libcaf_core.so.0.14.6:_ZN3caf6detail7logging16create_singletonEv
libcaf_core.so.0.14.6:_ZN3caf6detail7logging7get_aidEv
libcaf_core.so.0.14.6:_ZN3caf6detail7logging7set_aidEj
libcaf_core.so.0.14.6:_ZN3caf6detail7loggingD0Ev
libcaf_core.so.0.14.6:_ZN3caf6detail7loggingD1Ev
libcaf_core.so.0.14.6:_ZN3caf6detail7loggingD2Ev
libcaf_core.so.0.14.6:_ZN3caf6detail9parse_iniERSiSt8functionIFvNSt7__cxx1112basic_stringIcSt11char_traitsIcESaIcEEENS_7variantIJS8_dlbEEEEENS_8optionalIRSoEE
libcaf_core.so.0.14.6:_ZN3caf6detail9try_matchERKNS_7messageEPKNS0_12meta_elementEmPPv
libcaf_core.so.0.14.6:_ZN3caf6detail9try_matchERKNS_7messageEmmPKNS0_12meta_elementES6_RNS0_19set_commit_rollbackE
libcaf_core.so.0.14.6:_ZN3caf7channel7compareEPKNS_16abstract_channelES3_
libcaf_core.so.0.14.6:_ZN3caf7channelC1EPNS_16abstract_channelE
libcaf_core.so.0.14.6:_ZN3caf7channelC1ERKNS_15invalid_actor_tE
libcaf_core.so.0.14.6:_ZN3caf7channelC1ERKNS_15invalid_group_tE
libcaf_core.so.0.14.6:_ZN3caf7channelC1ERKNS_5actorE
libcaf_core.so.0.14.6:_ZN3caf7channelC1ERKNS_5groupE
libcaf_core.so.0.14.6:_ZN3caf7channelC2EPNS_16abstract_channelE
libcaf_core.so.0.14.6:_ZN3caf7channelC2ERKNS_15invalid_actor_tE
libcaf_core.so.0.14.6:_ZN3caf7channelC2ERKNS_15invalid_group_tE
libcaf_core.so.0.14.6:_ZN3caf7channelC2ERKNS_5actorE
libcaf_core.so.0.14.6:_ZN3caf7channelC2ERKNS_5groupE
libcaf_core.so.0.14.6:_ZN3caf7message10mutable_atEm
libcaf_core.so.0.14.6:_ZN3caf7message11concat_implESt16initializer_listINS_6detail12message_data7cow_ptrEE
libcaf_core.so.0.14.6:_ZN3caf7message11deserializeERNS_12deserializerE
libcaf_core.so.0.14.6:_ZN3caf7message4swapERS0_
libcaf_core.so.0.14.6:_ZN3caf7message5applyENS_15message_handlerE
libcaf_core.so.0.14.6:_ZN3caf7message5resetEPNS_6detail12message_dataEb
libcaf_core.so.0.14.6:_ZN3caf7message7cli_argC1ENSt7__cxx1112basic_stringIcSt11char_traitsIcESaIcEEES7_
libcaf_core.so.0.14.6:_ZN3caf7message7cli_argC1ENSt7__cxx1112basic_stringIcSt11char_traitsIcESaIcEEES7_RS7_
libcaf_core.so.0.14.6:_ZN3caf7message7cli_argC1ENSt7__cxx1112basic_stringIcSt11char_traitsIcESaIcEEES7_RSt6vectorIS7_SaIS7_EE
libcaf_core.so.0.14.6:_ZN3caf7message7cli_argC1ENSt7__cxx1112basic_stringIcSt11char_traitsIcESaIcEEES7_St8functionIFbRKS7_EE
libcaf_core.so.0.14.6:_ZN3caf7message7cli_argC2ENSt7__cxx1112basic_stringIcSt11char_traitsIcESaIcEEES7_
libcaf_core.so.0.14.6:_ZN3caf7message7cli_argC2ENSt7__cxx1112basic_stringIcSt11char_traitsIcESaIcEEES7_RS7_
libcaf_core.so.0.14.6:_ZN3caf7message7cli_argC2ENSt7__cxx1112basic_stringIcSt11char_traitsIcESaIcEEES7_RSt6vectorIS7_SaIS7_EE
libcaf_core.so.0.14.6:_ZN3caf7message7cli_argC2ENSt7__cxx1112basic_stringIcSt11char_traitsIcESaIcEEES7_St8functionIFbRKS7_EE
libcaf_core.so.0.14.6:_ZN3caf7messageC1EOS0_
libcaf_core.so.0.14.6:_ZN3caf7messageC1ERKNS_6detail12message_data7cow_ptrE
libcaf_core.so.0.14.6:_ZN3caf7messageC2EOS0_
libcaf_core.so.0.14.6:_ZN3caf7messageC2ERKNS_6detail12message_data7cow_ptrE
libcaf_core.so.0.14.6:_ZN3caf7messageaSEOS0_
libcaf_core.so.0.14.6:_ZN3caf7node_id11deserializeERNS_12deserializerE
libcaf_core.so.0.14.6:_ZN3caf7node_id4data16create_singletonEv
libcaf_core.so.0.14.6:_ZN3caf7node_id4data4stopEv
libcaf_core.so.0.14.6:_ZN3caf7node_id4dataC1EjRKNSt7__cxx1112basic_stringIcSt11char_traitsIcESaIcEEE
libcaf_core.so.0.14.6:_ZN3caf7node_id4dataC1EjSt5arrayIhLm20EE
libcaf_core.so.0.14.6:_ZN3caf7node_id4dataC1Ev
libcaf_core.so.0.14.6:_ZN3caf7node_id4dataC2EjRKNSt7__cxx1112basic_stringIcSt11char_traitsIcESaIcEEE
libcaf_core.so.0.14.6:_ZN3caf7node_id4dataC2EjSt5arrayIhLm20EE
libcaf_core.so.0.14.6:_ZN3caf7node_id4dataC2Ev
libcaf_core.so.0.14.6:_ZN3caf7node_id4dataD0Ev
libcaf_core.so.0.14.6:_ZN3caf7node_id4dataD1Ev
libcaf_core.so.0.14.6:_ZN3caf7node_id4dataD2Ev
libcaf_core.so.0.14.6:_ZN3caf7node_idC1ENS_13intrusive_ptrINS0_4dataEEE
libcaf_core.so.0.14.6:_ZN3caf7node_idC1ERKNS_17invalid_node_id_tE
libcaf_core.so.0.14.6:_ZN3caf7node_idC1EjRKNSt7__cxx1112basic_stringIcSt11char_traitsIcESaIcEEE
libcaf_core.so.0.14.6:_ZN3caf7node_idC1EjRKSt5arrayIhLm20EE
libcaf_core.so.0.14.6:_ZN3caf7node_idC2ENS_13intrusive_ptrINS0_4dataEEE
libcaf_core.so.0.14.6:_ZN3caf7node_idC2ERKNS_17invalid_node_id_tE
libcaf_core.so.0.14.6:_ZN3caf7node_idC2EjRKNSt7__cxx1112basic_stringIcSt11char_traitsIcESaIcEEE
libcaf_core.so.0.14.6:_ZN3caf7node_idC2EjRKSt5arrayIhLm20EE
libcaf_core.so.0.14.6:_ZN3caf7node_idD1Ev
libcaf_core.so.0.14.6:_ZN3caf7node_idD2Ev
libcaf_core.so.0.14.6:_ZN3caf7node_idaSERKNS_17invalid_node_id_tE
libcaf_core.so.0.14.6:_ZN3caf8announceERKSt9type_infoSt10unique_ptrINS_17uniform_type_infoESt14default_deleteIS4_EE
libcaf_core.so.0.14.6:_ZN3caf8behavior6assignENS_15message_handlerE
libcaf_core.so.0.14.6:_ZN3caf8behavior6assignES0_
libcaf_core.so.0.14.6:_ZN3caf8behaviorC1ERKNS_15message_handlerE
libcaf_core.so.0.14.6:_ZN3caf8behaviorC2ERKNS_15message_handlerE
libcaf_core.so.0.14.6:_ZN3caf8shutdownEv
libcaf_core.so.0.14.6:_ZN3caf9resumableD0Ev
libcaf_core.so.0.14.6:_ZN3caf9resumableD1Ev
libcaf_core.so.0.14.6:_ZN3caf9resumableD2Ev
libcaf_core.so.0.14.6:_ZN3caf9scheduler20abstract_coordinator10initializeEv
libcaf_core.so.0.14.6:_ZN3caf9scheduler20abstract_coordinator11stop_actorsEv
libcaf_core.so.0.14.6:_ZN3caf9scheduler20abstract_coordinator16create_singletonEv
libcaf_core.so.0.14.6:_ZN3caf9scheduler20abstract_coordinatorC1Emm
libcaf_core.so.0.14.6:_ZN3caf9scheduler20abstract_coordinatorC2Emm
libcaf_core.so.0.14.6:_ZN3caf9scheduler20abstract_coordinatorD0Ev
libcaf_core.so.0.14.6:_ZN3caf9scheduler20abstract_coordinatorD1Ev
libcaf_core.so.0.14.6:_ZN3caf9scheduler20abstract_coordinatorD2Ev
libcaf_core.so.0.14.6:_ZN3caf9scheduler20dec_detached_threadsEv
libcaf_core.so.0.14.6:_ZN3caf9scheduler20inc_detached_threadsEv
libcaf_core.so.0.14.6:_ZN3caf9scheduler22await_detached_threadsEv
libcaf_core.so.0.14.6:_ZN3caf9to_stringB5cxx11ERKNS_10actor_addrE
libcaf_core.so.0.14.6:_ZN3caf9to_stringB5cxx11ERKNS_10atom_valueE
libcaf_core.so.0.14.6:_ZN3caf9to_stringB5cxx11ERKNS_10message_idE
libcaf_core.so.0.14.6:_ZN3caf9to_stringB5cxx11ERKNS_15mailbox_elementE
libcaf_core.so.0.14.6:_ZN3caf9to_stringB5cxx11ERKNS_5actorE
libcaf_core.so.0.14.6:_ZN3caf9to_stringB5cxx11ERKNS_5groupE
libcaf_core.so.0.14.6:_ZN3caf9to_stringB5cxx11ERKNS_7channelE
libcaf_core.so.0.14.6:_ZN3caf9to_stringB5cxx11ERKNS_7messageE
libcaf_core.so.0.14.6:_ZN3caf9to_stringB5cxx11ERKNS_7node_idE
libcaf_core.so.0.14.6:_ZN3caf9to_stringB5cxx11ERKSt5arrayIhLm20EE
libcaf_core.so.0.14.6:_ZN3cafeqERKNS_8durationES2_
libcaf_core.so.0.14.6:_ZN3caflsERSoNS_14skip_message_tE
libcaf_core.so.0.14.6:_ZNK3caf10actor_addr2idEv
libcaf_core.so.0.14.6:_ZNK3caf10actor_addr4nodeEv
libcaf_core.so.0.14.6:_ZNK3caf10actor_addr7compareEPKNS_14abstract_actorE
libcaf_core.so.0.14.6:_ZNK3caf10actor_addr7compareERKS0_
libcaf_core.so.0.14.6:_ZNK3caf10actor_addr9is_remoteEv
libcaf_core.so.0.14.6:_ZNK3caf11actor_proxy6anchor7expiredEv
libcaf_core.so.0.14.6:_ZNK3caf11local_actor13joined_groupsEv
libcaf_core.so.0.14.6:_ZNK3caf11local_actor15awaits_responseEv
libcaf_core.so.0.14.6:_ZNK3caf11local_actor17active_timeout_idEv
libcaf_core.so.0.14.6:_ZNK3caf11local_actor17is_active_timeoutEj
libcaf_core.so.0.14.6:_ZNK3caf11local_actor4nameEv
libcaf_core.so.0.14.6:_ZNK3caf11local_actor6awaitsENS_10message_idE
libcaf_core.so.0.14.6:_ZNK3caf11local_actor9send_implENS_10message_idEPNS_16abstract_channelENS_7messageE
libcaf_core.so.0.14.6:_ZNK3caf13caf_exception4whatEv
libcaf_core.so.0.14.6:_ZNK3caf14abstract_actor13message_typesB5cxx11Ev
libcaf_core.so.0.14.6:_ZNK3caf14abstract_actor7addressEv
libcaf_core.so.0.14.6:_ZNK3caf14abstract_group10get_moduleEv
libcaf_core.so.0.14.6:_ZNK3caf14abstract_group10identifierB5cxx11Ev
libcaf_core.so.0.14.6:_ZNK3caf14abstract_group11module_nameB5cxx11Ev
libcaf_core.so.0.14.6:_ZNK3caf14abstract_group6module4nameB5cxx11Ev
libcaf_core.so.0.14.6:_ZNK3caf15actor_namespace5emptyEv
libcaf_core.so.0.14.6:_ZNK3caf15actor_namespace5writeEPNS_10serializerERKNS_10actor_addrE
libcaf_core.so.0.14.6:_ZNK3caf15actor_namespace7get_allERKNS_7node_idE
libcaf_core.so.0.14.6:_ZNK3caf15actor_namespace7get_allEv
libcaf_core.so.0.14.6:_ZNK3caf15message_builder10to_messageEv
libcaf_core.so.0.14.6:_ZNK3caf15message_builder4dataEv
libcaf_core.so.0.14.6:_ZNK3caf15message_builder4sizeEv
libcaf_core.so.0.14.6:_ZNK3caf15message_builder5emptyEv
libcaf_core.so.0.14.6:_ZNK3caf16abstract_channel9is_remoteEv
libcaf_core.so.0.14.6:_ZNK3caf16response_promise12deliver_implENS_7messageE
libcaf_core.so.0.14.6:_ZNK3caf17uniform_type_info11deserializeEPNS_12deserializerE
libcaf_core.so.0.14.6:_ZNK3caf19binary_deserializer6at_endEv
libcaf_core.so.0.14.6:_ZNK3caf22forwarding_actor_proxy7managerEv
libcaf_core.so.0.14.6:_ZNK3caf5actor2idEv
libcaf_core.so.0.14.6:_ZNK3caf5actor7addressEv
libcaf_core.so.0.14.6:_ZNK3caf5actor7compareERKNS_10actor_addrE
libcaf_core.so.0.14.6:_ZNK3caf5actor7compareERKS0_
libcaf_core.so.0.14.6:_ZNK3caf5actor9is_remoteEv
libcaf_core.so.0.14.6:_ZNK3caf5group7compareERKS0_
libcaf_core.so.0.14.6:_ZNK3caf6detail12message_data16tuple_type_namesB5cxx11Ev
libcaf_core.so.0.14.6:_ZNK3caf6detail12message_data6equalsERKS1_
libcaf_core.so.0.14.6:_ZNK3caf6detail14actor_registry12named_actorsEv
libcaf_core.so.0.14.6:_ZNK3caf6detail14actor_registry7runningEv
libcaf_core.so.0.14.6:_ZNK3caf6detail14actor_registry9get_entryEj
libcaf_core.so.0.14.6:_ZNK3caf6detail14actor_registry9get_namedENS_10atom_valueE
libcaf_core.so.0.14.6:_ZNK3caf6detail15decorated_tuple10type_nr_atEm
libcaf_core.so.0.14.6:_ZNK3caf6detail15decorated_tuple10type_tokenEv
libcaf_core.so.0.14.6:_ZNK3caf6detail15decorated_tuple13match_elementEmtPKSt9type_info
libcaf_core.so.0.14.6:_ZNK3caf6detail15decorated_tuple15uniform_name_atEm
libcaf_core.so.0.14.6:_ZNK3caf6detail15decorated_tuple2atEm
libcaf_core.so.0.14.6:_ZNK3caf6detail15decorated_tuple4copyEv
libcaf_core.so.0.14.6:_ZNK3caf6detail15decorated_tuple4sizeEv
libcaf_core.so.0.14.6:_ZNK3caf6detail18concatenated_tuple10type_nr_atEm
libcaf_core.so.0.14.6:_ZNK3caf6detail18concatenated_tuple10type_tokenEv
libcaf_core.so.0.14.6:_ZNK3caf6detail18concatenated_tuple13match_elementEmtPKSt9type_info
libcaf_core.so.0.14.6:_ZNK3caf6detail18concatenated_tuple15uniform_name_atEm
libcaf_core.so.0.14.6:_ZNK3caf6detail18concatenated_tuple2atEm
libcaf_core.so.0.14.6:_ZNK3caf6detail18concatenated_tuple4copyEv
libcaf_core.so.0.14.6:_ZNK3caf6detail18concatenated_tuple4sizeEv
libcaf_core.so.0.14.6:_ZNK3caf6detail18concatenated_tuple6selectEm
libcaf_core.so.0.14.6:_ZNK3caf6detail20sync_request_bouncerclERKNS_10actor_addrERKNS_10message_idE
libcaf_core.so.0.14.6:_ZNK3caf6detail20sync_request_bouncerclERKNS_15mailbox_elementE
libcaf_core.so.0.14.6:_ZNK3caf7channel7compareEPKNS_16abstract_channelE
libcaf_core.so.0.14.6:_ZNK3caf7channel7compareERKNS_5actorE
libcaf_core.so.0.14.6:_ZNK3caf7channel7compareERKS0_
libcaf_core.so.0.14.6:_ZNK3caf7message10drop_rightEm
libcaf_core.so.0.14.6:_ZNK3caf7message12extract_implEmNS_15message_handlerE
libcaf_core.so.0.14.6:_ZNK3caf7message12extract_optsESt6vectorINS0_7cli_argESaIS2_EESt8functionIFNSt7__cxx1112basic_stringIcSt11char_traitsIcESaIcEEERKS4_EEb
libcaf_core.so.0.14.6:_ZNK3caf7message13match_elementEmtPKSt9type_info
libcaf_core.so.0.14.6:_ZNK3caf7message15uniform_name_atEm
libcaf_core.so.0.14.6:_ZNK3caf7message2atEm
libcaf_core.so.0.14.6:_ZNK3caf7message4dropEm
libcaf_core.so.0.14.6:_ZNK3caf7message5sliceEmm
libcaf_core.so.0.14.6:_ZNK3caf7message6equalsERKS0_
libcaf_core.so.0.14.6:_ZNK3caf7message7extractENS_15message_handlerE
libcaf_core.so.0.14.6:_ZNK3caf7message9serializeERNS_10serializerE
libcaf_core.so.0.14.6:_ZNK3caf7node_id10process_idEv
libcaf_core.so.0.14.6:_ZNK3caf7node_id7compareERKNS_17invalid_node_id_tE
libcaf_core.so.0.14.6:_ZNK3caf7node_id7compareERKS0_
libcaf_core.so.0.14.6:_ZNK3caf7node_id7host_idEv
libcaf_core.so.0.14.6:_ZNK3caf7node_id9serializeERNS_10serializerE
libcaf_core.so.0.14.6:_ZSt4endlRN3caf13actor_ostreamE
libcaf_core.so.0.14.6:_ZSt5flushRN3caf13actor_ostreamE
libcaf_core.so.0.14.6:_ZThn144_N3caf11local_actor19attach_to_schedulerEv
libcaf_core.so.0.14.6:_ZThn144_N3caf11local_actor21detach_from_schedulerEv
libcaf_core.so.0.14.6:_ZThn144_N3caf11local_actor6resumeEPNS_14execution_unitEm
libcaf_core.so.0.14.6:_ZThn144_N3caf11local_actorD0Ev
libcaf_core.so.0.14.6:_ZThn144_N3caf11local_actorD1Ev
libcaf_core.so.0.14.6:_ZThn144_N3caf14blocking_actorD0Ev
libcaf_core.so.0.14.6:_ZThn144_N3caf14blocking_actorD1Ev
libcaf_core.so.0.14.6:_ZThn144_N3caf17event_based_actorD0Ev
libcaf_core.so.0.14.6:_ZThn144_N3caf17event_based_actorD1Ev
libcaf_io.so.0.14.6:_ZN3caf2io11basp_broker13make_behaviorEv
libcaf_io.so.0.14.6:_ZN3caf2io11basp_brokerC1ERNS0_9middlemanE
libcaf_io.so.0.14.6:_ZN3caf2io11basp_brokerC2ERNS0_9middlemanE
libcaf_io.so.0.14.6:_ZN3caf2io12max_msg_sizeEm
libcaf_io.so.0.14.6:_ZN3caf2io12max_msg_sizeEv
libcaf_io.so.0.14.6:_ZN3caf2io12publish_implEtNS_10actor_addrESt3setINSt7__cxx1112basic_stringIcSt11char_traitsIcESaIcEEESt4lessIS8_ESaIS8_EEPKcb
libcaf_io.so.0.14.6:_ZN3caf2io12remote_groupERKNSt7__cxx1112basic_stringIcSt11char_traitsIcESaIcEEE
libcaf_io.so.0.14.6:_ZN3caf2io12remote_groupERKNSt7__cxx1112basic_stringIcSt11char_traitsIcESaIcEEES8_t
libcaf_io.so.0.14.6:_ZN3caf2io13set_middlemanEPNS0_7network11multiplexerE
libcaf_io.so.0.14.6:_ZN3caf2io14unpublish_implERKNS_10actor_addrEtb
libcaf_io.so.0.14.6:_ZN3caf2io15abstract_broker10add_scribeERKNS_13intrusive_ptrINS0_6scribeEEE
libcaf_io.so.0.14.6:_ZN3caf2io15abstract_broker10local_addrB5cxx11ENS0_13accept_handleE
libcaf_io.so.0.14.6:_ZN3caf2io15abstract_broker10local_portENS0_13accept_handleE
libcaf_io.so.0.14.6:_ZN3caf2io15abstract_broker11add_doormanERKNS_13intrusive_ptrINS0_7doormanEEE
libcaf_io.so.0.14.6:_ZN3caf2io15abstract_broker11hdl_by_portEt
libcaf_io.so.0.14.6:_ZN3caf2io15abstract_broker11init_brokerEv
libcaf_io.so.0.14.6:_ZN3caf2io15abstract_broker11remote_addrB5cxx11ENS0_17connection_handleE
libcaf_io.so.0.14.6:_ZN3caf2io15abstract_broker11remote_portENS0_17connection_handleE
libcaf_io.so.0.14.6:_ZN3caf2io15abstract_broker14add_tcp_scribeERKNSt7__cxx1112basic_stringIcSt11char_traitsIcESaIcEEEt
libcaf_io.so.0.14.6:_ZN3caf2io15abstract_broker14add_tcp_scribeEi
libcaf_io.so.0.14.6:_ZN3caf2io15abstract_broker14configure_readENS0_17connection_handleESt4pairINS0_19receive_policy_flagEmE
libcaf_io.so.0.14.6:_ZN3caf2io15abstract_broker15add_tcp_doormanEi
libcaf_io.so.0.14.6:_ZN3caf2io15abstract_broker15add_tcp_doormanEtPKcb
libcaf_io.so.0.14.6:_ZN3caf2io15abstract_broker17assign_tcp_scribeENS0_17connection_handleE
libcaf_io.so.0.14.6:_ZN3caf2io15abstract_broker18assign_tcp_doormanENS0_13accept_handleE
libcaf_io.so.0.14.6:_ZN3caf2io15abstract_broker5flushENS0_17connection_handleE
libcaf_io.so.0.14.6:_ZN3caf2io15abstract_broker5writeENS0_17connection_handleEmPKv
libcaf_io.so.0.14.6:_ZN3caf2io15abstract_broker6launchEPNS_14execution_unitEbb
libcaf_io.so.0.14.6:_ZN3caf2io15abstract_broker6wr_bufENS0_17connection_handleE
libcaf_io.so.0.14.6:_ZN3caf2io15abstract_broker7backendEv
libcaf_io.so.0.14.6:_ZN3caf2io15abstract_broker7cleanupEj
libcaf_io.so.0.14.6:_ZN3caf2io15abstract_broker7enqueueERKNS_10actor_addrENS_10message_idENS_7messageEPNS_14execution_unitE
libcaf_io.so.0.14.6:_ZN3caf2io15abstract_broker7enqueueESt10unique_ptrINS_15mailbox_elementENS_6detail8disposerEEPNS_14execution_unitE
libcaf_io.so.0.14.6:_ZN3caf2io15abstract_broker9close_allEv
libcaf_io.so.0.14.6:_ZN3caf2io15abstract_brokerC1ERNS0_9middlemanE
libcaf_io.so.0.14.6:_ZN3caf2io15abstract_brokerC1Ev
libcaf_io.so.0.14.6:_ZN3caf2io15abstract_brokerC2ERNS0_9middlemanE
libcaf_io.so.0.14.6:_ZN3caf2io15abstract_brokerC2Ev
libcaf_io.so.0.14.6:_ZN3caf2io15abstract_brokerD0Ev
libcaf_io.so.0.14.6:_ZN3caf2io15abstract_brokerD1Ev
libcaf_io.so.0.14.6:_ZN3caf2io15abstract_brokerD2Ev
libcaf_io.so.0.14.6:_ZN3caf2io17basp_broker_state10kill_proxyERKNS_7node_idEjj
libcaf_io.so.0.14.6:_ZN3caf2io17basp_broker_state10make_proxyERKNS_7node_idEj
libcaf_io.so.0.14.6:_ZN3caf2io17basp_broker_state11purge_stateERKNS_7node_idE
libcaf_io.so.0.14.6:_ZN3caf2io17basp_broker_state11set_contextENS0_17connection_handleE
libcaf_io.so.0.14.6:_ZN3caf2io17basp_broker_state13erase_contextENS0_17connection_handleE
libcaf_io.so.0.14.6:_ZN3caf2io17basp_broker_state15proxy_announcedERKNS_7node_idEj
libcaf_io.so.0.14.6:_ZN3caf2io17basp_broker_state16learned_new_nodeERKNS_7node_idE
libcaf_io.so.0.14.6:_ZN3caf2io17basp_broker_state18finalize_handshakeERKNS_7node_idEjRSt3setINSt7__cxx1112basic_stringIcSt11char_traitsIcESaIcEEESt4lessISB_ESaISB_EE
libcaf_io.so.0.14.6:_ZN3caf2io17basp_broker_state25learned_new_node_directlyERKNS_7node_idEb
libcaf_io.so.0.14.6:_ZN3caf2io17basp_broker_state27learned_new_node_indirectlyERKNS_7node_idE
libcaf_io.so.0.14.6:_ZN3caf2io17basp_broker_state7deliverERKNS_7node_idEjS4_jRNS_7messageENS_10message_idE
libcaf_io.so.0.14.6:_ZN3caf2io17basp_broker_stateC1EPNS0_6brokerE
libcaf_io.so.0.14.6:_ZN3caf2io17basp_broker_stateC2EPNS0_6brokerE
libcaf_io.so.0.14.6:_ZN3caf2io17basp_broker_stateD0Ev
libcaf_io.so.0.14.6:_ZN3caf2io17basp_broker_stateD1Ev
libcaf_io.so.0.14.6:_ZN3caf2io17basp_broker_stateD2Ev
libcaf_io.so.0.14.6:_ZN3caf2io17remote_actor_implESt3setINSt7__cxx1112basic_stringIcSt11char_traitsIcESaIcEEESt4lessIS7_ESaIS7_EES7_t
libcaf_io.so.0.14.6:_ZN3caf2io19get_middleman_actorB5cxx11Ev
libcaf_io.so.0.14.6:_ZN3caf2io20publish_local_groupsEtPKc
libcaf_io.so.0.14.6:_ZN3caf2io4basp13routing_table10add_directERKNS0_17connection_handleERKNS_7node_idE
libcaf_io.so.0.14.6:_ZN3caf2io4basp13routing_table12add_indirectERKNS_7node_idES5_
libcaf_io.so.0.14.6:_ZN3caf2io4basp13routing_table12erase_directERKNS0_17connection_handleERNS_8callbackIJRKNS_7node_idEEEE
libcaf_io.so.0.14.6:_ZN3caf2io4basp13routing_table14erase_indirectERKNS_7node_idE
libcaf_io.so.0.14.6:_ZN3caf2io4basp13routing_table5eraseERKNS_7node_idERNS_8callbackIJS5_EEE
libcaf_io.so.0.14.6:_ZN3caf2io4basp13routing_table5flushERKNS2_5routeE
libcaf_io.so.0.14.6:_ZN3caf2io4basp13routing_table6lookupERKNS_7node_idE
libcaf_io.so.0.14.6:_ZN3caf2io4basp13routing_table9blacklistERKNS_7node_idES5_
libcaf_io.so.0.14.6:_ZN3caf2io4basp13routing_table9reachableERKNS_7node_idE
libcaf_io.so.0.14.6:_ZN3caf2io4basp13routing_tableC1EPNS0_15abstract_brokerE
libcaf_io.so.0.14.6:_ZN3caf2io4basp13routing_tableC2EPNS0_15abstract_brokerE
libcaf_io.so.0.14.6:_ZN3caf2io4basp13routing_tableD0Ev
libcaf_io.so.0.14.6:_ZN3caf2io4basp13routing_tableD1Ev
libcaf_io.so.0.14.6:_ZN3caf2io4basp13routing_tableD2Ev
libcaf_io.so.0.14.6:_ZN3caf2io4basp5validERKNS1_6headerE
libcaf_io.so.0.14.6:_ZN3caf2io4basp8instance19add_published_actorEtNS_10actor_addrESt3setINSt7__cxx1112basic_stringIcSt11char_traitsIcESaIcEEESt4lessISA_ESaISA_EE
libcaf_io.so.0.14.6:_ZN3caf2io4basp8instance20handle_node_shutdownERKNS_7node_idE
libcaf_io.so.0.14.6:_ZN3caf2io4basp8instance20write_dispatch_errorERSt6vectorIcSaIcEERKNS_7node_idES9_NS1_5errorERKNS1_6headerEPKS5_
libcaf_io.so.0.14.6:_ZN3caf2io4basp8instance22remove_published_actorERKNS_10actor_addrEtPNS_8callbackIJS5_tEEE
libcaf_io.so.0.14.6:_ZN3caf2io4basp8instance22remove_published_actorEtPNS_8callbackIJRKNS_10actor_addrEtEEE
libcaf_io.so.0.14.6:_ZN3caf2io4basp8instance22write_client_handshakeERSt6vectorIcSaIcEERKNS_7node_idE
libcaf_io.so.0.14.6:_ZN3caf2io4basp8instance22write_server_handshakeERSt6vectorIcSaIcEENS_8optionalItEE
libcaf_io.so.0.14.6:_ZN3caf2io4basp8instance25write_kill_proxy_instanceERSt6vectorIcSaIcEERKNS_7node_idEjj
libcaf_io.so.0.14.6:_ZN3caf2io4basp8instance5flushERKNS1_13routing_table5routeE
libcaf_io.so.0.14.6:_ZN3caf2io4basp8instance5writeERKNS1_13routing_table5routeERNS1_6headerEPNS_8callbackIJRNS_10serializerEEEE
libcaf_io.so.0.14.6:_ZN3caf2io4basp8instance5writeERSt6vectorIcSaIcEENS1_12message_typeEPjmRKNS_7node_idESB_jjPNS_8callbackIJRNS_10serializerEEEE
libcaf_io.so.0.14.6:_ZN3caf2io4basp8instance5writeERSt6vectorIcSaIcEERNS1_6headerEPNS_8callbackIJRNS_10serializerEEEE
libcaf_io.so.0.14.6:_ZN3caf2io4basp8instance6calleeC1ERNS_15actor_namespace7backendERNS0_9middlemanE
libcaf_io.so.0.14.6:_ZN3caf2io4basp8instance6calleeC2ERNS_15actor_namespace7backendERNS0_9middlemanE
libcaf_io.so.0.14.6:_ZN3caf2io4basp8instance6calleeD0Ev
libcaf_io.so.0.14.6:_ZN3caf2io4basp8instance6calleeD1Ev
libcaf_io.so.0.14.6:_ZN3caf2io4basp8instance6calleeD2Ev
libcaf_io.so.0.14.6:_ZN3caf2io4basp8instance6handleERKNS0_12new_data_msgERNS1_6headerEb
libcaf_io.so.0.14.6:_ZN3caf2io4basp8instance6handleERKNS0_21connection_closed_msgE
libcaf_io.so.0.14.6:_ZN3caf2io4basp8instance6lookupERKNS_7node_idE
libcaf_io.so.0.14.6:_ZN3caf2io4basp8instance8dispatchERKNS_10actor_addrES5_NS_10message_idERKNS_7messageE
libcaf_io.so.0.14.6:_ZN3caf2io4basp8instanceC1EPNS0_15abstract_brokerERNS2_6calleeE
libcaf_io.so.0.14.6:_ZN3caf2io4basp8instanceC2EPNS0_15abstract_brokerERNS2_6calleeE
libcaf_io.so.0.14.6:_ZN3caf2io4basp8read_hdrERNS_12deserializerERNS1_6headerE
libcaf_io.so.0.14.6:_ZN3caf2io4basp9to_stringB5cxx11ENS1_12message_typeE
libcaf_io.so.0.14.6:_ZN3caf2io4basp9to_stringB5cxx11ERKNS1_6headerE
libcaf_io.so.0.14.6:_ZN3caf2io4basp9write_hdrERNS_10serializerERKNS1_6headerE
libcaf_io.so.0.14.6:_ZN3caf2io4baspeqERKNS1_6headerES4_
libcaf_io.so.0.14.6:_ZN3caf2io4hook13route_lost_cbERKNS_7node_idES4_
libcaf_io.so.0.14.6:_ZN3caf2io4hook15message_sent_cbERKNS_10actor_addrERKNS_7node_idES4_NS_10message_idERKNS_7messageE
libcaf_io.so.0.14.6:_ZN3caf2io4hook18actor_published_cbERKNS_10actor_addrERKSt3setINSt7__cxx1112basic_stringIcSt11char_traitsIcESaIcEEESt4lessISB_ESaISB_EEt
libcaf_io.so.0.14.6:_ZN3caf2io4hook18before_shutdown_cbEv
libcaf_io.so.0.14.6:_ZN3caf2io4hook18connection_lost_cbERKNS_7node_idE
libcaf_io.so.0.14.6:_ZN3caf2io4hook18new_route_added_cbERKNS_7node_idES4_
libcaf_io.so.0.14.6:_ZN3caf2io4hook19message_received_cbERKNS_7node_idERKNS_10actor_addrES7_NS_10message_idERKNS_7messageE
libcaf_io.so.0.14.6:_ZN3caf2io4hook19new_remote_actor_cbERKNS_10actor_addrE
libcaf_io.so.0.14.6:_ZN3caf2io4hook20message_forwarded_cbERKNS0_4basp6headerEPKSt6vectorIcSaIcEE
libcaf_io.so.0.14.6:_ZN3caf2io4hook25message_sending_failed_cbERKNS_10actor_addrES4_NS_10message_idERKNS_7messageE
libcaf_io.so.0.14.6:_ZN3caf2io4hook27invalid_message_received_cbERKNS_7node_idERKNS_10actor_addrEjNS_10message_idERKNS_7messageE
libcaf_io.so.0.14.6:_ZN3caf2io4hook28message_forwarding_failed_cbERKNS0_4basp6headerEPKSt6vectorIcSaIcEE
libcaf_io.so.0.14.6:_ZN3caf2io4hook29new_connection_established_cbERKNS_7node_idE
libcaf_io.so.0.14.6:_ZN3caf2io4hookD0Ev
libcaf_io.so.0.14.6:_ZN3caf2io4hookD1Ev
libcaf_io.so.0.14.6:_ZN3caf2io4hookD2Ev
libcaf_io.so.0.14.6:_ZN3caf2io6broker10initializeEv
libcaf_io.so.0.14.6:_ZN3caf2io6broker13make_behaviorEv
libcaf_io.so.0.14.6:_ZN3caf2io6brokerC1ERNS0_9middlemanE
libcaf_io.so.0.14.6:_ZN3caf2io6brokerC1Ev
libcaf_io.so.0.14.6:_ZN3caf2io6brokerC2ERNS0_9middlemanE
libcaf_io.so.0.14.6:_ZN3caf2io6brokerC2Ev
libcaf_io.so.0.14.6:_ZN3caf2io6scribe10io_failureENS0_7network9operationE
libcaf_io.so.0.14.6:_ZN3caf2io6scribe14detach_messageEv
libcaf_io.so.0.14.6:_ZN3caf2io6scribe7consumeEPKvm
libcaf_io.so.0.14.6:_ZN3caf2io6scribeC1EPNS0_15abstract_brokerENS0_17connection_handleE
libcaf_io.so.0.14.6:_ZN3caf2io6scribeC2EPNS0_15abstract_brokerENS0_17connection_handleE
libcaf_io.so.0.14.6:_ZN3caf2io6scribeD0Ev
libcaf_io.so.0.14.6:_ZN3caf2io6scribeD1Ev
libcaf_io.so.0.14.6:_ZN3caf2io6scribeD2Ev
libcaf_io.so.0.14.6:_ZN3caf2io7doorman10io_failureENS0_7network9operationE
libcaf_io.so.0.14.6:_ZN3caf2io7doorman14detach_messageEv
libcaf_io.so.0.14.6:_ZN3caf2io7doormanC1EPNS0_15abstract_brokerENS0_13accept_handleE
libcaf_io.so.0.14.6:_ZN3caf2io7doormanC2EPNS0_15abstract_brokerENS0_13accept_handleE
libcaf_io.so.0.14.6:_ZN3caf2io7doormanD0Ev
libcaf_io.so.0.14.6:_ZN3caf2io7doormanD1Ev
libcaf_io.so.0.14.6:_ZN3caf2io7doormanD2Ev
libcaf_io.so.0.14.6:_ZN3caf2io7network10interfaces14list_addressesB5cxx11ENS1_8protocolEb
libcaf_io.so.0.14.6:_ZN3caf2io7network10interfaces14list_addressesB5cxx11ESt16initializer_listINS1_8protocolEEb
libcaf_io.so.0.14.6:_ZN3caf2io7network10interfaces14list_addressesB5cxx11Eb
libcaf_io.so.0.14.6:_ZN3caf2io7network10interfaces14native_addressERKNSt7__cxx1112basic_stringIcSt11char_traitsIcESaIcEEENS_8optionalINS1_8protocolEEE
libcaf_io.so.0.14.6:_ZN3caf2io7network10interfaces8list_allB5cxx11Eb
libcaf_io.so.0.14.6:_ZN3caf2io7network10interfaces8traverseESt16initializer_listINS1_8protocolEESt8functionIFvPKcS4_bS8_EE
libcaf_io.so.0.14.6:_ZN3caf2io7network10interfaces8traverseESt8functionIFvPKcNS1_8protocolEbS5_EE
libcaf_io.so.0.14.6:_ZN3caf2io7network10try_acceptERii
libcaf_io.so.0.14.6:_ZN3caf2io7network10write_someERmiPKvm
libcaf_io.so.0.14.6:_ZN3caf2io7network11create_pipeEv
libcaf_io.so.0.14.6:_ZN3caf2io7network11multiplexer10supervisorD0Ev
libcaf_io.so.0.14.6:_ZN3caf2io7network11multiplexer10supervisorD1Ev
libcaf_io.so.0.14.6:_ZN3caf2io7network11multiplexer10supervisorD2Ev
libcaf_io.so.0.14.6:_ZN3caf2io7network11multiplexer4makeEv
libcaf_io.so.0.14.6:_ZN3caf2io7network11multiplexer5pimplEv
libcaf_io.so.0.14.6:_ZN3caf2io7network11multiplexer8runnableD0Ev
libcaf_io.so.0.14.6:_ZN3caf2io7network11multiplexer8runnableD1Ev
libcaf_io.so.0.14.6:_ZN3caf2io7network11multiplexer8runnableD2Ev
libcaf_io.so.0.14.6:_ZN3caf2io7network11multiplexerD0Ev
libcaf_io.so.0.14.6:_ZN3caf2io7network11multiplexerD1Ev
libcaf_io.so.0.14.6:_ZN3caf2io7network11multiplexerD2Ev
libcaf_io.so.0.14.6:_ZN3caf2io7network11nonblockingEib
libcaf_io.so.0.14.6:_ZN3caf2io7network11tcp_nodelayEib
libcaf_io.so.0.14.6:_ZN3caf2io7network13allow_sigpipeEib
libcaf_io.so.0.14.6:_ZN3caf2io7network13event_handlerC1ERNS1_19default_multiplexerE
libcaf_io.so.0.14.6:_ZN3caf2io7network13event_handlerC2ERNS1_19default_multiplexerE
libcaf_io.so.0.14.6:_ZN3caf2io7network13event_handlerD0Ev
libcaf_io.so.0.14.6:_ZN3caf2io7network13event_handlerD1Ev
libcaf_io.so.0.14.6:_ZN3caf2io7network13event_handlerD2Ev
libcaf_io.so.0.14.6:_ZN3caf2io7network13fetch_in_addrEiP8sockaddr
libcaf_io.so.0.14.6:_ZN3caf2io7network14default_socket10close_readEv
libcaf_io.so.0.14.6:_ZN3caf2io7network14default_socketC1EOS2_
libcaf_io.so.0.14.6:_ZN3caf2io7network14default_socketC1ERNS1_19default_multiplexerEi
libcaf_io.so.0.14.6:_ZN3caf2io7network14default_socketC2EOS2_
libcaf_io.so.0.14.6:_ZN3caf2io7network14default_socketC2ERNS1_19default_multiplexerEi
libcaf_io.so.0.14.6:_ZN3caf2io7network14default_socketD1Ev
libcaf_io.so.0.14.6:_ZN3caf2io7network14default_socketD2Ev
libcaf_io.so.0.14.6:_ZN3caf2io7network14default_socketaSEOS2_
libcaf_io.so.0.14.6:_ZN3caf2io7network14fetch_addr_strEbbRA46_cP8sockaddr
libcaf_io.so.0.14.6:_ZN3caf2io7network14set_inaddr_anyEiR11sockaddr_in
libcaf_io.so.0.14.6:_ZN3caf2io7network14set_inaddr_anyEiR12sockaddr_in6
libcaf_io.so.0.14.6:_ZN3caf2io7network14stream_managerC1EPNS0_15abstract_brokerE
libcaf_io.so.0.14.6:_ZN3caf2io7network14stream_managerC2EPNS0_15abstract_brokerE
libcaf_io.so.0.14.6:_ZN3caf2io7network14stream_managerD0Ev
libcaf_io.so.0.14.6:_ZN3caf2io7network14stream_managerD1Ev
libcaf_io.so.0.14.6:_ZN3caf2io7network14stream_managerD2Ev
libcaf_io.so.0.14.6:_ZN3caf2io7network16acceptor_managerC1EPNS0_15abstract_brokerE
libcaf_io.so.0.14.6:_ZN3caf2io7network16acceptor_managerC2EPNS0_15abstract_brokerE
libcaf_io.so.0.14.6:_ZN3caf2io7network16acceptor_managerD0Ev
libcaf_io.so.0.14.6:_ZN3caf2io7network16acceptor_managerD1Ev
libcaf_io.so.0.14.6:_ZN3caf2io7network16acceptor_managerD2Ev
libcaf_io.so.0.14.6:_ZN3caf2io7network16local_addr_of_fdB5cxx11Ei
libcaf_io.so.0.14.6:_ZN3caf2io7network16local_port_of_fdEi
libcaf_io.so.0.14.6:_ZN3caf2io7network16new_tcp_acceptorEtPKcb
libcaf_io.so.0.14.6:_ZN3caf2io7network16test_multiplexer11read_configENS0_17connection_handleE
libcaf_io.so.0.14.6:_ZN3caf2io7network16test_multiplexer12input_bufferENS0_17connection_handleE
libcaf_io.so.0.14.6:_ZN3caf2io7network16test_multiplexer12virtual_sendENS0_17connection_handleERKSt6vectorIcSaIcEE
libcaf_io.so.0.14.6:_ZN3caf2io7network16test_multiplexer13exec_runnableEv
libcaf_io.so.0.14.6:_ZN3caf2io7network16test_multiplexer13output_bufferENS0_17connection_handleE
libcaf_io.so.0.14.6:_ZN3caf2io7network16test_multiplexer14add_tcp_scribeEPNS0_15abstract_brokerERKNSt7__cxx1112basic_stringIcSt11char_traitsIcESaIcEEEt
libcaf_io.so.0.14.6:_ZN3caf2io7network16test_multiplexer14add_tcp_scribeEPNS0_15abstract_brokerEi
libcaf_io.so.0.14.6:_ZN3caf2io7network16test_multiplexer14new_tcp_scribeERKNSt7__cxx1112basic_stringIcSt11char_traitsIcESaIcEEEt
libcaf_io.so.0.14.6:_ZN3caf2io7network16test_multiplexer14provide_scribeENSt7__cxx1112basic_stringIcSt11char_traitsIcESaIcEEEtNS0_17connection_handleE
libcaf_io.so.0.14.6:_ZN3caf2io7network16test_multiplexer15add_tcp_doormanEPNS0_15abstract_brokerEi
libcaf_io.so.0.14.6:_ZN3caf2io7network16test_multiplexer15add_tcp_doormanEPNS0_15abstract_brokerEtPKcb
libcaf_io.so.0.14.6:_ZN3caf2io7network16test_multiplexer15flush_runnablesEv
libcaf_io.so.0.14.6:_ZN3caf2io7network16test_multiplexer15make_supervisorEv
libcaf_io.so.0.14.6:_ZN3caf2io7network16test_multiplexer15new_tcp_doormanEtPKcb
libcaf_io.so.0.14.6:_ZN3caf2io7network16test_multiplexer15pending_scribesB5cxx11Ev
libcaf_io.so.0.14.6:_ZN3caf2io7network16test_multiplexer15stopped_readingENS0_13accept_handleE
libcaf_io.so.0.14.6:_ZN3caf2io7network16test_multiplexer15stopped_readingENS0_17connection_handleE
libcaf_io.so.0.14.6:_ZN3caf2io7network16test_multiplexer16pending_connectsEv
libcaf_io.so.0.14.6:_ZN3caf2io7network16test_multiplexer16provide_acceptorEtNS0_13accept_handleE
libcaf_io.so.0.14.6:_ZN3caf2io7network16test_multiplexer17accept_connectionENS0_13accept_handleE
libcaf_io.so.0.14.6:_ZN3caf2io7network16test_multiplexer17assign_tcp_scribeEPNS0_15abstract_brokerENS0_17connection_handleE
libcaf_io.so.0.14.6:_ZN3caf2io7network16test_multiplexer17dispatch_runnableENS_13intrusive_ptrINS1_11multiplexer8runnableEEE
libcaf_io.so.0.14.6:_ZN3caf2io7network16test_multiplexer17try_exec_runnableEv
libcaf_io.so.0.14.6:_ZN3caf2io7network16test_multiplexer18assign_tcp_doormanEPNS0_15abstract_brokerENS0_13accept_handleE
libcaf_io.so.0.14.6:_ZN3caf2io7network16test_multiplexer19add_pending_connectENS0_13accept_handleENS0_17connection_handleE
libcaf_io.so.0.14.6:_ZN3caf2io7network16test_multiplexer22virtual_network_bufferENS0_17connection_handleE
libcaf_io.so.0.14.6:_ZN3caf2io7network16test_multiplexer3runEv
libcaf_io.so.0.14.6:_ZN3caf2io7network16test_multiplexer4portENS0_13accept_handleE
libcaf_io.so.0.14.6:_ZN3caf2io7network16test_multiplexer8impl_ptrENS0_13accept_handleE
libcaf_io.so.0.14.6:_ZN3caf2io7network16test_multiplexer8impl_ptrENS0_17connection_handleE
libcaf_io.so.0.14.6:_ZN3caf2io7network16test_multiplexer9read_dataENS0_17connection_handleE
libcaf_io.so.0.14.6:_ZN3caf2io7network16test_multiplexerD0Ev
libcaf_io.so.0.14.6:_ZN3caf2io7network16test_multiplexerD1Ev
libcaf_io.so.0.14.6:_ZN3caf2io7network16test_multiplexerD2Ev
libcaf_io.so.0.14.6:_ZN3caf2io7network17remote_addr_of_fdB5cxx11Ei
libcaf_io.so.0.14.6:_ZN3caf2io7network17remote_port_of_fdEi
libcaf_io.so.0.14.6:_ZN3caf2io7network18new_tcp_connectionERKNSt7__cxx1112basic_stringIcSt11char_traitsIcESaIcEEEt
libcaf_io.so.0.14.6:_ZN3caf2io7network19default_multiplexer10close_pipeEv
libcaf_io.so.0.14.6:_ZN3caf2io7network19default_multiplexer14add_tcp_scribeEPNS0_15abstract_brokerEONS1_14default_socketE
libcaf_io.so.0.14.6:_ZN3caf2io7network19default_multiplexer14add_tcp_scribeEPNS0_15abstract_brokerERKNSt7__cxx1112basic_stringIcSt11char_traitsIcESaIcEEEt
libcaf_io.so.0.14.6:_ZN3caf2io7network19default_multiplexer14add_tcp_scribeEPNS0_15abstract_brokerEi
libcaf_io.so.0.14.6:_ZN3caf2io7network19default_multiplexer14new_tcp_scribeERKNSt7__cxx1112basic_stringIcSt11char_traitsIcESaIcEEEt
libcaf_io.so.0.14.6:_ZN3caf2io7network19default_multiplexer15add_tcp_doormanEPNS0_15abstract_brokerEONS1_14default_socketE
libcaf_io.so.0.14.6:_ZN3caf2io7network19default_multiplexer15add_tcp_doormanEPNS0_15abstract_brokerEi
libcaf_io.so.0.14.6:_ZN3caf2io7network19default_multiplexer15add_tcp_doormanEPNS0_15abstract_brokerEtPKcb
libcaf_io.so.0.14.6:_ZN3caf2io7network19default_multiplexer15make_supervisorEv
libcaf_io.so.0.14.6:_ZN3caf2io7network19default_multiplexer15new_tcp_doormanEtPKcb
libcaf_io.so.0.14.6:_ZN3caf2io7network19default_multiplexer17assign_tcp_scribeEPNS0_15abstract_brokerENS0_17connection_handleE
libcaf_io.so.0.14.6:_ZN3caf2io7network19default_multiplexer17dispatch_runnableENS_13intrusive_ptrINS1_11multiplexer8runnableEEE
libcaf_io.so.0.14.6:_ZN3caf2io7network19default_multiplexer18assign_tcp_doormanEPNS0_15abstract_brokerENS0_13accept_handleE
libcaf_io.so.0.14.6:_ZN3caf2io7network19default_multiplexer19handle_socket_eventEiiPNS1_13event_handlerE
libcaf_io.so.0.14.6:_ZN3caf2io7network19default_multiplexer19rd_dispatch_requestEv
libcaf_io.so.0.14.6:_ZN3caf2io7network19default_multiplexer19wr_dispatch_requestEPNS1_11multiplexer8runnableE
libcaf_io.so.0.14.6:_ZN3caf2io7network19default_multiplexer28socket_had_rd_shutdown_eventEi
libcaf_io.so.0.14.6:_ZN3caf2io7network19default_multiplexer3addENS1_9operationEiPNS1_13event_handlerE
libcaf_io.so.0.14.6:_ZN3caf2io7network19default_multiplexer3delENS1_9operationEiPNS1_13event_handlerE
libcaf_io.so.0.14.6:_ZN3caf2io7network19default_multiplexer3runEv
libcaf_io.so.0.14.6:_ZN3caf2io7network19default_multiplexer4initEv
libcaf_io.so.0.14.6:_ZN3caf2io7network19default_multiplexer6handleERKNS2_5eventE
libcaf_io.so.0.14.6:_ZN3caf2io7network19default_multiplexerC1Ev
libcaf_io.so.0.14.6:_ZN3caf2io7network19default_multiplexerC2Ev
libcaf_io.so.0.14.6:_ZN3caf2io7network19default_multiplexerD0Ev
libcaf_io.so.0.14.6:_ZN3caf2io7network19default_multiplexerD1Ev
libcaf_io.so.0.14.6:_ZN3caf2io7network19default_multiplexerD2Ev
libcaf_io.so.0.14.6:_ZN3caf2io7network21new_tcp_acceptor_implEtPKcb
libcaf_io.so.0.14.6:_ZN3caf2io7network23new_tcp_connection_implERKNSt7__cxx1112basic_stringIcSt11char_traitsIcESaIcEEEtNS_8optionalINS1_8protocolEEE
libcaf_io.so.0.14.6:_ZN3caf2io7network25get_multiplexer_singletonEv
libcaf_io.so.0.14.6:_ZN3caf2io7network27last_socket_error_as_stringB5cxx11Ev
libcaf_io.so.0.14.6:_ZN3caf2io7network5pimplEv
libcaf_io.so.0.14.6:_ZN3caf2io7network7addr_ofER11sockaddr_in
libcaf_io.so.0.14.6:_ZN3caf2io7network7addr_ofER12sockaddr_in6
libcaf_io.so.0.14.6:_ZN3caf2io7network7manager10set_parentEPNS0_15abstract_brokerE
libcaf_io.so.0.14.6:_ZN3caf2io7network7manager6detachEb
libcaf_io.so.0.14.6:_ZN3caf2io7network7managerC1EPNS0_15abstract_brokerE
libcaf_io.so.0.14.6:_ZN3caf2io7network7managerC2EPNS0_15abstract_brokerE
libcaf_io.so.0.14.6:_ZN3caf2io7network7managerD0Ev
libcaf_io.so.0.14.6:_ZN3caf2io7network7managerD1Ev
libcaf_io.so.0.14.6:_ZN3caf2io7network7managerD2Ev
libcaf_io.so.0.14.6:_ZN3caf2io7network7port_ofER11sockaddr_in
libcaf_io.so.0.14.6:_ZN3caf2io7network7port_ofER12sockaddr_in6
libcaf_io.so.0.14.6:_ZN3caf2io7network7port_ofER8sockaddr
libcaf_io.so.0.14.6:_ZN3caf2io7network8add_flagENS1_9operationEi
libcaf_io.so.0.14.6:_ZN3caf2io7network8del_flagENS1_9operationEi
libcaf_io.so.0.14.6:_ZN3caf2io7network8is_errorElb
libcaf_io.so.0.14.6:_ZN3caf2io7network9family_ofER11sockaddr_in
libcaf_io.so.0.14.6:_ZN3caf2io7network9family_ofER12sockaddr_in6
libcaf_io.so.0.14.6:_ZN3caf2io7network9read_someERmiPvm
libcaf_io.so.0.14.6:_ZN3caf2io9middleman10add_brokerENS_13intrusive_ptrINS0_6brokerEEE
libcaf_io.so.0.14.6:_ZN3caf2io9middleman10initializeEv
libcaf_io.so.0.14.6:_ZN3caf2io9middleman12actor_handleB5cxx11Ev
libcaf_io.so.0.14.6:_ZN3caf2io9middleman4stopEv
libcaf_io.so.0.14.6:_ZN3caf2io9middleman7disposeEv
libcaf_io.so.0.14.6:_ZN3caf2io9middleman8instanceEv
libcaf_io.so.0.14.6:_ZN3caf2io9middlemanC1ERKSt8functionIFSt10unique_ptrINS0_7network11multiplexerESt14default_deleteIS5_EEvEE
libcaf_io.so.0.14.6:_ZN3caf2io9middlemanC2ERKSt8functionIFSt10unique_ptrINS0_7network11multiplexerESt14default_deleteIS5_EEvEE
libcaf_io.so.0.14.6:_ZN3caf2io9middlemanD0Ev
libcaf_io.so.0.14.6:_ZN3caf2io9middlemanD1Ev
libcaf_io.so.0.14.6:_ZN3caf2io9middlemanD2Ev
libcaf_io.so.0.14.6:_ZNK3caf2io15abstract_broker11connectionsEv
libcaf_io.so.0.14.6:_ZNK3caf2io15abstract_broker4nameEv
libcaf_io.so.0.14.6:_ZNK3caf2io4basp13routing_table13lookup_directERKNS0_17connection_handleE
libcaf_io.so.0.14.6:_ZNK3caf2io4basp13routing_table13lookup_directERKNS_7node_idE
libcaf_io.so.0.14.6:_ZNK3caf2io4basp13routing_table15lookup_indirectERKNS_7node_idE
libcaf_io.so.0.14.6:_ZThn144_N3caf2io15abstract_brokerD0Ev
libcaf_io.so.0.14.6:_ZThn144_N3caf2io15abstract_brokerD1Ev
libcaf_io.so.0.14.6:_ZThn8_N3caf2io17basp_broker_state10kill_proxyERKNS_7node_idEjj
libcaf_io.so.0.14.6:_ZThn8_N3caf2io17basp_broker_state11purge_stateERKNS_7node_idE
libcaf_io.so.0.14.6:_ZThn8_N3caf2io17basp_broker_state15proxy_announcedERKNS_7node_idEj
libcaf_io.so.0.14.6:_ZThn8_N3caf2io17basp_broker_state18finalize_handshakeERKNS_7node_idEjRSt3setINSt7__cxx1112basic_stringIcSt11char_traitsIcESaIcEEESt4lessISB_ESaISB_EE
libcaf_io.so.0.14.6:_ZThn8_N3caf2io17basp_broker_state25learned_new_node_directlyERKNS_7node_idEb
libcaf_io.so.0.14.6:_ZThn8_N3caf2io17basp_broker_state27learned_new_node_indirectlyERKNS_7node_idE
libcaf_io.so.0.14.6:_ZThn8_N3caf2io17basp_broker_state7deliverERKNS_7node_idEjS4_jRNS_7messageENS_10message_idE
libcaf_io.so.0.14.6:_ZThn8_N3caf2io17basp_broker_stateD0Ev
libcaf_io.so.0.14.6:_ZThn8_N3caf2io17basp_broker_stateD1Ev
